
zig-cache/zig-bare-metal-raspberry-pi:	file format ELF32-arm-little

Disassembly of section .text:
_start:
   10000:	b0 0f 10 ee 	mrc	p15, #0, r0, c0, c0, #5
   10004:	03 00 00 e2 	and	r0, r0, #3
   10008:	00 00 50 e3 	cmp	r0, #0
   1000c:	01 00 00 0a 	beq	#4 <core_0>

not_core_0:
   10010:	02 f0 20 e3 	wfe
   10014:	fd ff ff ea 	b	#-12 <not_core_0>

core_0:
   10018:	1f 00 02 f1 	cps	#31
   1001c:	02 d3 a0 e3 	mov	sp, #134217728
   10020:	b5 04 00 eb 	bl	#4820 <kernelMain>
   10024:	d4 d4 d4 d4 	ldrble	sp, [r4], #1236
   10028:	d4 d4 d4 d4 	ldrble	sp, [r4], #1236
   1002c:	d4 d4 d4 d4 	ldrble	sp, [r4], #1236
   10030:	d4 d4 d4 d4 	ldrble	sp, [r4], #1236
   10034:	d4 d4 d4 d4 	ldrble	sp, [r4], #1236
   10038:	d4 d4 d4 d4 	ldrble	sp, [r4], #1236
   1003c:	d4 d4 d4 d4 	ldrble	sp, [r4], #1236
   10040:	d4 d4 d4 d4 	ldrble	sp, [r4], #1236
   10044:	d4 d4 d4 d4 	ldrble	sp, [r4], #1236
   10048:	d4 d4 d4 d4 	ldrble	sp, [r4], #1236
   1004c:	d4 d4 d4 d4 	ldrble	sp, [r4], #1236
   10050:	d4 d4 d4 d4 	ldrble	sp, [r4], #1236
   10054:	d4 d4 d4 d4 	ldrble	sp, [r4], #1236
   10058:	d4 d4 d4 d4 	ldrble	sp, [r4], #1236
   1005c:	d4 d4 d4 d4 	ldrble	sp, [r4], #1236
   10060:	d4 d4 d4 d4 	ldrble	sp, [r4], #1236
   10064:	d4 d4 d4 d4 	ldrble	sp, [r4], #1236
   10068:	d4 d4 d4 d4 	ldrble	sp, [r4], #1236
   1006c:	d4 d4 d4 d4 	ldrble	sp, [r4], #1236
   10070:	d4 d4 d4 d4 	ldrble	sp, [r4], #1236
   10074:	d4 d4 d4 d4 	ldrble	sp, [r4], #1236
   10078:	d4 d4 d4 d4 	ldrble	sp, [r4], #1236
   1007c:	d4 d4 d4 d4 	ldrble	sp, [r4], #1236
   10080:	d4 d4 d4 d4 	ldrble	sp, [r4], #1236
   10084:	d4 d4 d4 d4 	ldrble	sp, [r4], #1236
   10088:	d4 d4 d4 d4 	ldrble	sp, [r4], #1236
   1008c:	d4 d4 d4 d4 	ldrble	sp, [r4], #1236
   10090:	d4 d4 d4 d4 	ldrble	sp, [r4], #1236
   10094:	d4 d4 d4 d4 	ldrble	sp, [r4], #1236
   10098:	d4 d4 d4 d4 	ldrble	sp, [r4], #1236
   1009c:	d4 d4 d4 d4 	ldrble	sp, [r4], #1236
   100a0:	d4 d4 d4 d4 	ldrble	sp, [r4], #1236
   100a4:	d4 d4 d4 d4 	ldrble	sp, [r4], #1236
   100a8:	d4 d4 d4 d4 	ldrble	sp, [r4], #1236
   100ac:	d4 d4 d4 d4 	ldrble	sp, [r4], #1236
   100b0:	d4 d4 d4 d4 	ldrble	sp, [r4], #1236
   100b4:	d4 d4 d4 d4 	ldrble	sp, [r4], #1236
   100b8:	d4 d4 d4 d4 	ldrble	sp, [r4], #1236
   100bc:	d4 d4 d4 d4 	ldrble	sp, [r4], #1236
   100c0:	d4 d4 d4 d4 	ldrble	sp, [r4], #1236
   100c4:	d4 d4 d4 d4 	ldrble	sp, [r4], #1236
   100c8:	d4 d4 d4 d4 	ldrble	sp, [r4], #1236
   100cc:	d4 d4 d4 d4 	ldrble	sp, [r4], #1236
   100d0:	d4 d4 d4 d4 	ldrble	sp, [r4], #1236
   100d4:	d4 d4 d4 d4 	ldrble	sp, [r4], #1236
   100d8:	d4 d4 d4 d4 	ldrble	sp, [r4], #1236
   100dc:	d4 d4 d4 d4 	ldrble	sp, [r4], #1236
   100e0:	d4 d4 d4 d4 	ldrble	sp, [r4], #1236
   100e4:	d4 d4 d4 d4 	ldrble	sp, [r4], #1236
   100e8:	d4 d4 d4 d4 	ldrble	sp, [r4], #1236
   100ec:	d4 d4 d4 d4 	ldrble	sp, [r4], #1236
   100f0:	d4 d4 d4 d4 	ldrble	sp, [r4], #1236
   100f4:	d4 d4 d4 d4 	ldrble	sp, [r4], #1236
   100f8:	d4 d4 d4 d4 	ldrble	sp, [r4], #1236
   100fc:	d4 d4 d4 d4 	ldrble	sp, [r4], #1236
   10100:	d4 d4 d4 d4 	ldrble	sp, [r4], #1236
   10104:	d4 d4 d4 d4 	ldrble	sp, [r4], #1236
   10108:	d4 d4 d4 d4 	ldrble	sp, [r4], #1236
   1010c:	d4 d4 d4 d4 	ldrble	sp, [r4], #1236
   10110:	d4 d4 d4 d4 	ldrble	sp, [r4], #1236
   10114:	d4 d4 d4 d4 	ldrble	sp, [r4], #1236
   10118:	d4 d4 d4 d4 	ldrble	sp, [r4], #1236
   1011c:	d4 d4 d4 d4 	ldrble	sp, [r4], #1236
   10120:	d4 d4 d4 d4 	ldrble	sp, [r4], #1236
   10124:	d4 d4 d4 d4 	ldrble	sp, [r4], #1236
   10128:	d4 d4 d4 d4 	ldrble	sp, [r4], #1236
   1012c:	d4 d4 d4 d4 	ldrble	sp, [r4], #1236
   10130:	d4 d4 d4 d4 	ldrble	sp, [r4], #1236
   10134:	d4 d4 d4 d4 	ldrble	sp, [r4], #1236
   10138:	d4 d4 d4 d4 	ldrble	sp, [r4], #1236
   1013c:	d4 d4 d4 d4 	ldrble	sp, [r4], #1236
   10140:	d4 d4 d4 d4 	ldrble	sp, [r4], #1236
   10144:	d4 d4 d4 d4 	ldrble	sp, [r4], #1236
   10148:	d4 d4 d4 d4 	ldrble	sp, [r4], #1236
   1014c:	d4 d4 d4 d4 	ldrble	sp, [r4], #1236
   10150:	d4 d4 d4 d4 	ldrble	sp, [r4], #1236
   10154:	d4 d4 d4 d4 	ldrble	sp, [r4], #1236
   10158:	d4 d4 d4 d4 	ldrble	sp, [r4], #1236
   1015c:	d4 d4 d4 d4 	ldrble	sp, [r4], #1236
   10160:	d4 d4 d4 d4 	ldrble	sp, [r4], #1236
   10164:	d4 d4 d4 d4 	ldrble	sp, [r4], #1236
   10168:	d4 d4 d4 d4 	ldrble	sp, [r4], #1236
   1016c:	d4 d4 d4 d4 	ldrble	sp, [r4], #1236
   10170:	d4 d4 d4 d4 	ldrble	sp, [r4], #1236
   10174:	d4 d4 d4 d4 	ldrble	sp, [r4], #1236
   10178:	d4 d4 d4 d4 	ldrble	sp, [r4], #1236
   1017c:	d4 d4 d4 d4 	ldrble	sp, [r4], #1236
   10180:	d4 d4 d4 d4 	ldrble	sp, [r4], #1236
   10184:	d4 d4 d4 d4 	ldrble	sp, [r4], #1236
   10188:	d4 d4 d4 d4 	ldrble	sp, [r4], #1236
   1018c:	d4 d4 d4 d4 	ldrble	sp, [r4], #1236
   10190:	d4 d4 d4 d4 	ldrble	sp, [r4], #1236
   10194:	d4 d4 d4 d4 	ldrble	sp, [r4], #1236
   10198:	d4 d4 d4 d4 	ldrble	sp, [r4], #1236
   1019c:	d4 d4 d4 d4 	ldrble	sp, [r4], #1236
   101a0:	d4 d4 d4 d4 	ldrble	sp, [r4], #1236
   101a4:	d4 d4 d4 d4 	ldrble	sp, [r4], #1236
   101a8:	d4 d4 d4 d4 	ldrble	sp, [r4], #1236
   101ac:	d4 d4 d4 d4 	ldrble	sp, [r4], #1236
   101b0:	d4 d4 d4 d4 	ldrble	sp, [r4], #1236
   101b4:	d4 d4 d4 d4 	ldrble	sp, [r4], #1236
   101b8:	d4 d4 d4 d4 	ldrble	sp, [r4], #1236
   101bc:	d4 d4 d4 d4 	ldrble	sp, [r4], #1236
   101c0:	d4 d4 d4 d4 	ldrble	sp, [r4], #1236
   101c4:	d4 d4 d4 d4 	ldrble	sp, [r4], #1236
   101c8:	d4 d4 d4 d4 	ldrble	sp, [r4], #1236
   101cc:	d4 d4 d4 d4 	ldrble	sp, [r4], #1236
   101d0:	d4 d4 d4 d4 	ldrble	sp, [r4], #1236
   101d4:	d4 d4 d4 d4 	ldrble	sp, [r4], #1236
   101d8:	d4 d4 d4 d4 	ldrble	sp, [r4], #1236
   101dc:	d4 d4 d4 d4 	ldrble	sp, [r4], #1236
   101e0:	d4 d4 d4 d4 	ldrble	sp, [r4], #1236
   101e4:	d4 d4 d4 d4 	ldrble	sp, [r4], #1236
   101e8:	d4 d4 d4 d4 	ldrble	sp, [r4], #1236
   101ec:	d4 d4 d4 d4 	ldrble	sp, [r4], #1236
   101f0:	d4 d4 d4 d4 	ldrble	sp, [r4], #1236
   101f4:	d4 d4 d4 d4 	ldrble	sp, [r4], #1236
   101f8:	d4 d4 d4 d4 	ldrble	sp, [r4], #1236
   101fc:	d4 d4 d4 d4 	ldrble	sp, [r4], #1236
   10200:	d4 d4 d4 d4 	ldrble	sp, [r4], #1236
   10204:	d4 d4 d4 d4 	ldrble	sp, [r4], #1236
   10208:	d4 d4 d4 d4 	ldrble	sp, [r4], #1236
   1020c:	d4 d4 d4 d4 	ldrble	sp, [r4], #1236
   10210:	d4 d4 d4 d4 	ldrble	sp, [r4], #1236
   10214:	d4 d4 d4 d4 	ldrble	sp, [r4], #1236
   10218:	d4 d4 d4 d4 	ldrble	sp, [r4], #1236
   1021c:	d4 d4 d4 d4 	ldrble	sp, [r4], #1236
   10220:	d4 d4 d4 d4 	ldrble	sp, [r4], #1236
   10224:	d4 d4 d4 d4 	ldrble	sp, [r4], #1236
   10228:	d4 d4 d4 d4 	ldrble	sp, [r4], #1236
   1022c:	d4 d4 d4 d4 	ldrble	sp, [r4], #1236
   10230:	d4 d4 d4 d4 	ldrble	sp, [r4], #1236
   10234:	d4 d4 d4 d4 	ldrble	sp, [r4], #1236
   10238:	d4 d4 d4 d4 	ldrble	sp, [r4], #1236
   1023c:	d4 d4 d4 d4 	ldrble	sp, [r4], #1236
   10240:	d4 d4 d4 d4 	ldrble	sp, [r4], #1236
   10244:	d4 d4 d4 d4 	ldrble	sp, [r4], #1236
   10248:	d4 d4 d4 d4 	ldrble	sp, [r4], #1236
   1024c:	d4 d4 d4 d4 	ldrble	sp, [r4], #1236
   10250:	d4 d4 d4 d4 	ldrble	sp, [r4], #1236
   10254:	d4 d4 d4 d4 	ldrble	sp, [r4], #1236
   10258:	d4 d4 d4 d4 	ldrble	sp, [r4], #1236
   1025c:	d4 d4 d4 d4 	ldrble	sp, [r4], #1236
   10260:	d4 d4 d4 d4 	ldrble	sp, [r4], #1236
   10264:	d4 d4 d4 d4 	ldrble	sp, [r4], #1236
   10268:	d4 d4 d4 d4 	ldrble	sp, [r4], #1236
   1026c:	d4 d4 d4 d4 	ldrble	sp, [r4], #1236
   10270:	d4 d4 d4 d4 	ldrble	sp, [r4], #1236
   10274:	d4 d4 d4 d4 	ldrble	sp, [r4], #1236
   10278:	d4 d4 d4 d4 	ldrble	sp, [r4], #1236
   1027c:	d4 d4 d4 d4 	ldrble	sp, [r4], #1236
   10280:	d4 d4 d4 d4 	ldrble	sp, [r4], #1236
   10284:	d4 d4 d4 d4 	ldrble	sp, [r4], #1236
   10288:	d4 d4 d4 d4 	ldrble	sp, [r4], #1236
   1028c:	d4 d4 d4 d4 	ldrble	sp, [r4], #1236
   10290:	d4 d4 d4 d4 	ldrble	sp, [r4], #1236
   10294:	d4 d4 d4 d4 	ldrble	sp, [r4], #1236
   10298:	d4 d4 d4 d4 	ldrble	sp, [r4], #1236
   1029c:	d4 d4 d4 d4 	ldrble	sp, [r4], #1236
   102a0:	d4 d4 d4 d4 	ldrble	sp, [r4], #1236
   102a4:	d4 d4 d4 d4 	ldrble	sp, [r4], #1236
   102a8:	d4 d4 d4 d4 	ldrble	sp, [r4], #1236
   102ac:	d4 d4 d4 d4 	ldrble	sp, [r4], #1236
   102b0:	d4 d4 d4 d4 	ldrble	sp, [r4], #1236
   102b4:	d4 d4 d4 d4 	ldrble	sp, [r4], #1236
   102b8:	d4 d4 d4 d4 	ldrble	sp, [r4], #1236
   102bc:	d4 d4 d4 d4 	ldrble	sp, [r4], #1236
   102c0:	d4 d4 d4 d4 	ldrble	sp, [r4], #1236
   102c4:	d4 d4 d4 d4 	ldrble	sp, [r4], #1236
   102c8:	d4 d4 d4 d4 	ldrble	sp, [r4], #1236
   102cc:	d4 d4 d4 d4 	ldrble	sp, [r4], #1236
   102d0:	d4 d4 d4 d4 	ldrble	sp, [r4], #1236
   102d4:	d4 d4 d4 d4 	ldrble	sp, [r4], #1236
   102d8:	d4 d4 d4 d4 	ldrble	sp, [r4], #1236
   102dc:	d4 d4 d4 d4 	ldrble	sp, [r4], #1236
   102e0:	d4 d4 d4 d4 	ldrble	sp, [r4], #1236
   102e4:	d4 d4 d4 d4 	ldrble	sp, [r4], #1236
   102e8:	d4 d4 d4 d4 	ldrble	sp, [r4], #1236
   102ec:	d4 d4 d4 d4 	ldrble	sp, [r4], #1236
   102f0:	d4 d4 d4 d4 	ldrble	sp, [r4], #1236
   102f4:	d4 d4 d4 d4 	ldrble	sp, [r4], #1236
   102f8:	d4 d4 d4 d4 	ldrble	sp, [r4], #1236
   102fc:	d4 d4 d4 d4 	ldrble	sp, [r4], #1236
   10300:	d4 d4 d4 d4 	ldrble	sp, [r4], #1236
   10304:	d4 d4 d4 d4 	ldrble	sp, [r4], #1236
   10308:	d4 d4 d4 d4 	ldrble	sp, [r4], #1236
   1030c:	d4 d4 d4 d4 	ldrble	sp, [r4], #1236
   10310:	d4 d4 d4 d4 	ldrble	sp, [r4], #1236
   10314:	d4 d4 d4 d4 	ldrble	sp, [r4], #1236
   10318:	d4 d4 d4 d4 	ldrble	sp, [r4], #1236
   1031c:	d4 d4 d4 d4 	ldrble	sp, [r4], #1236
   10320:	d4 d4 d4 d4 	ldrble	sp, [r4], #1236
   10324:	d4 d4 d4 d4 	ldrble	sp, [r4], #1236
   10328:	d4 d4 d4 d4 	ldrble	sp, [r4], #1236
   1032c:	d4 d4 d4 d4 	ldrble	sp, [r4], #1236
   10330:	d4 d4 d4 d4 	ldrble	sp, [r4], #1236
   10334:	d4 d4 d4 d4 	ldrble	sp, [r4], #1236
   10338:	d4 d4 d4 d4 	ldrble	sp, [r4], #1236
   1033c:	d4 d4 d4 d4 	ldrble	sp, [r4], #1236
   10340:	d4 d4 d4 d4 	ldrble	sp, [r4], #1236
   10344:	d4 d4 d4 d4 	ldrble	sp, [r4], #1236
   10348:	d4 d4 d4 d4 	ldrble	sp, [r4], #1236
   1034c:	d4 d4 d4 d4 	ldrble	sp, [r4], #1236
   10350:	d4 d4 d4 d4 	ldrble	sp, [r4], #1236
   10354:	d4 d4 d4 d4 	ldrble	sp, [r4], #1236
   10358:	d4 d4 d4 d4 	ldrble	sp, [r4], #1236
   1035c:	d4 d4 d4 d4 	ldrble	sp, [r4], #1236
   10360:	d4 d4 d4 d4 	ldrble	sp, [r4], #1236
   10364:	d4 d4 d4 d4 	ldrble	sp, [r4], #1236
   10368:	d4 d4 d4 d4 	ldrble	sp, [r4], #1236
   1036c:	d4 d4 d4 d4 	ldrble	sp, [r4], #1236
   10370:	d4 d4 d4 d4 	ldrble	sp, [r4], #1236
   10374:	d4 d4 d4 d4 	ldrble	sp, [r4], #1236
   10378:	d4 d4 d4 d4 	ldrble	sp, [r4], #1236
   1037c:	d4 d4 d4 d4 	ldrble	sp, [r4], #1236
   10380:	d4 d4 d4 d4 	ldrble	sp, [r4], #1236
   10384:	d4 d4 d4 d4 	ldrble	sp, [r4], #1236
   10388:	d4 d4 d4 d4 	ldrble	sp, [r4], #1236
   1038c:	d4 d4 d4 d4 	ldrble	sp, [r4], #1236
   10390:	d4 d4 d4 d4 	ldrble	sp, [r4], #1236
   10394:	d4 d4 d4 d4 	ldrble	sp, [r4], #1236
   10398:	d4 d4 d4 d4 	ldrble	sp, [r4], #1236
   1039c:	d4 d4 d4 d4 	ldrble	sp, [r4], #1236
   103a0:	d4 d4 d4 d4 	ldrble	sp, [r4], #1236
   103a4:	d4 d4 d4 d4 	ldrble	sp, [r4], #1236
   103a8:	d4 d4 d4 d4 	ldrble	sp, [r4], #1236
   103ac:	d4 d4 d4 d4 	ldrble	sp, [r4], #1236
   103b0:	d4 d4 d4 d4 	ldrble	sp, [r4], #1236
   103b4:	d4 d4 d4 d4 	ldrble	sp, [r4], #1236
   103b8:	d4 d4 d4 d4 	ldrble	sp, [r4], #1236
   103bc:	d4 d4 d4 d4 	ldrble	sp, [r4], #1236
   103c0:	d4 d4 d4 d4 	ldrble	sp, [r4], #1236
   103c4:	d4 d4 d4 d4 	ldrble	sp, [r4], #1236
   103c8:	d4 d4 d4 d4 	ldrble	sp, [r4], #1236
   103cc:	d4 d4 d4 d4 	ldrble	sp, [r4], #1236
   103d0:	d4 d4 d4 d4 	ldrble	sp, [r4], #1236
   103d4:	d4 d4 d4 d4 	ldrble	sp, [r4], #1236
   103d8:	d4 d4 d4 d4 	ldrble	sp, [r4], #1236
   103dc:	d4 d4 d4 d4 	ldrble	sp, [r4], #1236
   103e0:	d4 d4 d4 d4 	ldrble	sp, [r4], #1236
   103e4:	d4 d4 d4 d4 	ldrble	sp, [r4], #1236
   103e8:	d4 d4 d4 d4 	ldrble	sp, [r4], #1236
   103ec:	d4 d4 d4 d4 	ldrble	sp, [r4], #1236
   103f0:	d4 d4 d4 d4 	ldrble	sp, [r4], #1236
   103f4:	d4 d4 d4 d4 	ldrble	sp, [r4], #1236
   103f8:	d4 d4 d4 d4 	ldrble	sp, [r4], #1236
   103fc:	d4 d4 d4 d4 	ldrble	sp, [r4], #1236
   10400:	d4 d4 d4 d4 	ldrble	sp, [r4], #1236
   10404:	d4 d4 d4 d4 	ldrble	sp, [r4], #1236
   10408:	d4 d4 d4 d4 	ldrble	sp, [r4], #1236
   1040c:	d4 d4 d4 d4 	ldrble	sp, [r4], #1236
   10410:	d4 d4 d4 d4 	ldrble	sp, [r4], #1236
   10414:	d4 d4 d4 d4 	ldrble	sp, [r4], #1236
   10418:	d4 d4 d4 d4 	ldrble	sp, [r4], #1236
   1041c:	d4 d4 d4 d4 	ldrble	sp, [r4], #1236
   10420:	d4 d4 d4 d4 	ldrble	sp, [r4], #1236
   10424:	d4 d4 d4 d4 	ldrble	sp, [r4], #1236
   10428:	d4 d4 d4 d4 	ldrble	sp, [r4], #1236
   1042c:	d4 d4 d4 d4 	ldrble	sp, [r4], #1236
   10430:	d4 d4 d4 d4 	ldrble	sp, [r4], #1236
   10434:	d4 d4 d4 d4 	ldrble	sp, [r4], #1236
   10438:	d4 d4 d4 d4 	ldrble	sp, [r4], #1236
   1043c:	d4 d4 d4 d4 	ldrble	sp, [r4], #1236
   10440:	d4 d4 d4 d4 	ldrble	sp, [r4], #1236
   10444:	d4 d4 d4 d4 	ldrble	sp, [r4], #1236
   10448:	d4 d4 d4 d4 	ldrble	sp, [r4], #1236
   1044c:	d4 d4 d4 d4 	ldrble	sp, [r4], #1236
   10450:	d4 d4 d4 d4 	ldrble	sp, [r4], #1236
   10454:	d4 d4 d4 d4 	ldrble	sp, [r4], #1236
   10458:	d4 d4 d4 d4 	ldrble	sp, [r4], #1236
   1045c:	d4 d4 d4 d4 	ldrble	sp, [r4], #1236
   10460:	d4 d4 d4 d4 	ldrble	sp, [r4], #1236
   10464:	d4 d4 d4 d4 	ldrble	sp, [r4], #1236
   10468:	d4 d4 d4 d4 	ldrble	sp, [r4], #1236
   1046c:	d4 d4 d4 d4 	ldrble	sp, [r4], #1236
   10470:	d4 d4 d4 d4 	ldrble	sp, [r4], #1236
   10474:	d4 d4 d4 d4 	ldrble	sp, [r4], #1236
   10478:	d4 d4 d4 d4 	ldrble	sp, [r4], #1236
   1047c:	d4 d4 d4 d4 	ldrble	sp, [r4], #1236
   10480:	d4 d4 d4 d4 	ldrble	sp, [r4], #1236
   10484:	d4 d4 d4 d4 	ldrble	sp, [r4], #1236
   10488:	d4 d4 d4 d4 	ldrble	sp, [r4], #1236
   1048c:	d4 d4 d4 d4 	ldrble	sp, [r4], #1236
   10490:	d4 d4 d4 d4 	ldrble	sp, [r4], #1236
   10494:	d4 d4 d4 d4 	ldrble	sp, [r4], #1236
   10498:	d4 d4 d4 d4 	ldrble	sp, [r4], #1236
   1049c:	d4 d4 d4 d4 	ldrble	sp, [r4], #1236
   104a0:	d4 d4 d4 d4 	ldrble	sp, [r4], #1236
   104a4:	d4 d4 d4 d4 	ldrble	sp, [r4], #1236
   104a8:	d4 d4 d4 d4 	ldrble	sp, [r4], #1236
   104ac:	d4 d4 d4 d4 	ldrble	sp, [r4], #1236
   104b0:	d4 d4 d4 d4 	ldrble	sp, [r4], #1236
   104b4:	d4 d4 d4 d4 	ldrble	sp, [r4], #1236
   104b8:	d4 d4 d4 d4 	ldrble	sp, [r4], #1236
   104bc:	d4 d4 d4 d4 	ldrble	sp, [r4], #1236
   104c0:	d4 d4 d4 d4 	ldrble	sp, [r4], #1236
   104c4:	d4 d4 d4 d4 	ldrble	sp, [r4], #1236
   104c8:	d4 d4 d4 d4 	ldrble	sp, [r4], #1236
   104cc:	d4 d4 d4 d4 	ldrble	sp, [r4], #1236
   104d0:	d4 d4 d4 d4 	ldrble	sp, [r4], #1236
   104d4:	d4 d4 d4 d4 	ldrble	sp, [r4], #1236
   104d8:	d4 d4 d4 d4 	ldrble	sp, [r4], #1236
   104dc:	d4 d4 d4 d4 	ldrble	sp, [r4], #1236
   104e0:	d4 d4 d4 d4 	ldrble	sp, [r4], #1236
   104e4:	d4 d4 d4 d4 	ldrble	sp, [r4], #1236
   104e8:	d4 d4 d4 d4 	ldrble	sp, [r4], #1236
   104ec:	d4 d4 d4 d4 	ldrble	sp, [r4], #1236
   104f0:	d4 d4 d4 d4 	ldrble	sp, [r4], #1236
   104f4:	d4 d4 d4 d4 	ldrble	sp, [r4], #1236
   104f8:	d4 d4 d4 d4 	ldrble	sp, [r4], #1236
   104fc:	d4 d4 d4 d4 	ldrble	sp, [r4], #1236
   10500:	d4 d4 d4 d4 	ldrble	sp, [r4], #1236
   10504:	d4 d4 d4 d4 	ldrble	sp, [r4], #1236
   10508:	d4 d4 d4 d4 	ldrble	sp, [r4], #1236
   1050c:	d4 d4 d4 d4 	ldrble	sp, [r4], #1236
   10510:	d4 d4 d4 d4 	ldrble	sp, [r4], #1236
   10514:	d4 d4 d4 d4 	ldrble	sp, [r4], #1236
   10518:	d4 d4 d4 d4 	ldrble	sp, [r4], #1236
   1051c:	d4 d4 d4 d4 	ldrble	sp, [r4], #1236
   10520:	d4 d4 d4 d4 	ldrble	sp, [r4], #1236
   10524:	d4 d4 d4 d4 	ldrble	sp, [r4], #1236
   10528:	d4 d4 d4 d4 	ldrble	sp, [r4], #1236
   1052c:	d4 d4 d4 d4 	ldrble	sp, [r4], #1236
   10530:	d4 d4 d4 d4 	ldrble	sp, [r4], #1236
   10534:	d4 d4 d4 d4 	ldrble	sp, [r4], #1236
   10538:	d4 d4 d4 d4 	ldrble	sp, [r4], #1236
   1053c:	d4 d4 d4 d4 	ldrble	sp, [r4], #1236
   10540:	d4 d4 d4 d4 	ldrble	sp, [r4], #1236
   10544:	d4 d4 d4 d4 	ldrble	sp, [r4], #1236
   10548:	d4 d4 d4 d4 	ldrble	sp, [r4], #1236
   1054c:	d4 d4 d4 d4 	ldrble	sp, [r4], #1236
   10550:	d4 d4 d4 d4 	ldrble	sp, [r4], #1236
   10554:	d4 d4 d4 d4 	ldrble	sp, [r4], #1236
   10558:	d4 d4 d4 d4 	ldrble	sp, [r4], #1236
   1055c:	d4 d4 d4 d4 	ldrble	sp, [r4], #1236
   10560:	d4 d4 d4 d4 	ldrble	sp, [r4], #1236
   10564:	d4 d4 d4 d4 	ldrble	sp, [r4], #1236
   10568:	d4 d4 d4 d4 	ldrble	sp, [r4], #1236
   1056c:	d4 d4 d4 d4 	ldrble	sp, [r4], #1236
   10570:	d4 d4 d4 d4 	ldrble	sp, [r4], #1236
   10574:	d4 d4 d4 d4 	ldrble	sp, [r4], #1236
   10578:	d4 d4 d4 d4 	ldrble	sp, [r4], #1236
   1057c:	d4 d4 d4 d4 	ldrble	sp, [r4], #1236
   10580:	d4 d4 d4 d4 	ldrble	sp, [r4], #1236
   10584:	d4 d4 d4 d4 	ldrble	sp, [r4], #1236
   10588:	d4 d4 d4 d4 	ldrble	sp, [r4], #1236
   1058c:	d4 d4 d4 d4 	ldrble	sp, [r4], #1236
   10590:	d4 d4 d4 d4 	ldrble	sp, [r4], #1236
   10594:	d4 d4 d4 d4 	ldrble	sp, [r4], #1236
   10598:	d4 d4 d4 d4 	ldrble	sp, [r4], #1236
   1059c:	d4 d4 d4 d4 	ldrble	sp, [r4], #1236
   105a0:	d4 d4 d4 d4 	ldrble	sp, [r4], #1236
   105a4:	d4 d4 d4 d4 	ldrble	sp, [r4], #1236
   105a8:	d4 d4 d4 d4 	ldrble	sp, [r4], #1236
   105ac:	d4 d4 d4 d4 	ldrble	sp, [r4], #1236
   105b0:	d4 d4 d4 d4 	ldrble	sp, [r4], #1236
   105b4:	d4 d4 d4 d4 	ldrble	sp, [r4], #1236
   105b8:	d4 d4 d4 d4 	ldrble	sp, [r4], #1236
   105bc:	d4 d4 d4 d4 	ldrble	sp, [r4], #1236
   105c0:	d4 d4 d4 d4 	ldrble	sp, [r4], #1236
   105c4:	d4 d4 d4 d4 	ldrble	sp, [r4], #1236
   105c8:	d4 d4 d4 d4 	ldrble	sp, [r4], #1236
   105cc:	d4 d4 d4 d4 	ldrble	sp, [r4], #1236
   105d0:	d4 d4 d4 d4 	ldrble	sp, [r4], #1236
   105d4:	d4 d4 d4 d4 	ldrble	sp, [r4], #1236
   105d8:	d4 d4 d4 d4 	ldrble	sp, [r4], #1236
   105dc:	d4 d4 d4 d4 	ldrble	sp, [r4], #1236
   105e0:	d4 d4 d4 d4 	ldrble	sp, [r4], #1236
   105e4:	d4 d4 d4 d4 	ldrble	sp, [r4], #1236
   105e8:	d4 d4 d4 d4 	ldrble	sp, [r4], #1236
   105ec:	d4 d4 d4 d4 	ldrble	sp, [r4], #1236
   105f0:	d4 d4 d4 d4 	ldrble	sp, [r4], #1236
   105f4:	d4 d4 d4 d4 	ldrble	sp, [r4], #1236
   105f8:	d4 d4 d4 d4 	ldrble	sp, [r4], #1236
   105fc:	d4 d4 d4 d4 	ldrble	sp, [r4], #1236
   10600:	d4 d4 d4 d4 	ldrble	sp, [r4], #1236
   10604:	d4 d4 d4 d4 	ldrble	sp, [r4], #1236
   10608:	d4 d4 d4 d4 	ldrble	sp, [r4], #1236
   1060c:	d4 d4 d4 d4 	ldrble	sp, [r4], #1236
   10610:	d4 d4 d4 d4 	ldrble	sp, [r4], #1236
   10614:	d4 d4 d4 d4 	ldrble	sp, [r4], #1236
   10618:	d4 d4 d4 d4 	ldrble	sp, [r4], #1236
   1061c:	d4 d4 d4 d4 	ldrble	sp, [r4], #1236
   10620:	d4 d4 d4 d4 	ldrble	sp, [r4], #1236
   10624:	d4 d4 d4 d4 	ldrble	sp, [r4], #1236
   10628:	d4 d4 d4 d4 	ldrble	sp, [r4], #1236
   1062c:	d4 d4 d4 d4 	ldrble	sp, [r4], #1236
   10630:	d4 d4 d4 d4 	ldrble	sp, [r4], #1236
   10634:	d4 d4 d4 d4 	ldrble	sp, [r4], #1236
   10638:	d4 d4 d4 d4 	ldrble	sp, [r4], #1236
   1063c:	d4 d4 d4 d4 	ldrble	sp, [r4], #1236
   10640:	d4 d4 d4 d4 	ldrble	sp, [r4], #1236
   10644:	d4 d4 d4 d4 	ldrble	sp, [r4], #1236
   10648:	d4 d4 d4 d4 	ldrble	sp, [r4], #1236
   1064c:	d4 d4 d4 d4 	ldrble	sp, [r4], #1236
   10650:	d4 d4 d4 d4 	ldrble	sp, [r4], #1236
   10654:	d4 d4 d4 d4 	ldrble	sp, [r4], #1236
   10658:	d4 d4 d4 d4 	ldrble	sp, [r4], #1236
   1065c:	d4 d4 d4 d4 	ldrble	sp, [r4], #1236
   10660:	d4 d4 d4 d4 	ldrble	sp, [r4], #1236
   10664:	d4 d4 d4 d4 	ldrble	sp, [r4], #1236
   10668:	d4 d4 d4 d4 	ldrble	sp, [r4], #1236
   1066c:	d4 d4 d4 d4 	ldrble	sp, [r4], #1236
   10670:	d4 d4 d4 d4 	ldrble	sp, [r4], #1236
   10674:	d4 d4 d4 d4 	ldrble	sp, [r4], #1236
   10678:	d4 d4 d4 d4 	ldrble	sp, [r4], #1236
   1067c:	d4 d4 d4 d4 	ldrble	sp, [r4], #1236
   10680:	d4 d4 d4 d4 	ldrble	sp, [r4], #1236
   10684:	d4 d4 d4 d4 	ldrble	sp, [r4], #1236
   10688:	d4 d4 d4 d4 	ldrble	sp, [r4], #1236
   1068c:	d4 d4 d4 d4 	ldrble	sp, [r4], #1236
   10690:	d4 d4 d4 d4 	ldrble	sp, [r4], #1236
   10694:	d4 d4 d4 d4 	ldrble	sp, [r4], #1236
   10698:	d4 d4 d4 d4 	ldrble	sp, [r4], #1236
   1069c:	d4 d4 d4 d4 	ldrble	sp, [r4], #1236
   106a0:	d4 d4 d4 d4 	ldrble	sp, [r4], #1236
   106a4:	d4 d4 d4 d4 	ldrble	sp, [r4], #1236
   106a8:	d4 d4 d4 d4 	ldrble	sp, [r4], #1236
   106ac:	d4 d4 d4 d4 	ldrble	sp, [r4], #1236
   106b0:	d4 d4 d4 d4 	ldrble	sp, [r4], #1236
   106b4:	d4 d4 d4 d4 	ldrble	sp, [r4], #1236
   106b8:	d4 d4 d4 d4 	ldrble	sp, [r4], #1236
   106bc:	d4 d4 d4 d4 	ldrble	sp, [r4], #1236
   106c0:	d4 d4 d4 d4 	ldrble	sp, [r4], #1236
   106c4:	d4 d4 d4 d4 	ldrble	sp, [r4], #1236
   106c8:	d4 d4 d4 d4 	ldrble	sp, [r4], #1236
   106cc:	d4 d4 d4 d4 	ldrble	sp, [r4], #1236
   106d0:	d4 d4 d4 d4 	ldrble	sp, [r4], #1236
   106d4:	d4 d4 d4 d4 	ldrble	sp, [r4], #1236
   106d8:	d4 d4 d4 d4 	ldrble	sp, [r4], #1236
   106dc:	d4 d4 d4 d4 	ldrble	sp, [r4], #1236
   106e0:	d4 d4 d4 d4 	ldrble	sp, [r4], #1236
   106e4:	d4 d4 d4 d4 	ldrble	sp, [r4], #1236
   106e8:	d4 d4 d4 d4 	ldrble	sp, [r4], #1236
   106ec:	d4 d4 d4 d4 	ldrble	sp, [r4], #1236
   106f0:	d4 d4 d4 d4 	ldrble	sp, [r4], #1236
   106f4:	d4 d4 d4 d4 	ldrble	sp, [r4], #1236
   106f8:	d4 d4 d4 d4 	ldrble	sp, [r4], #1236
   106fc:	d4 d4 d4 d4 	ldrble	sp, [r4], #1236
   10700:	d4 d4 d4 d4 	ldrble	sp, [r4], #1236
   10704:	d4 d4 d4 d4 	ldrble	sp, [r4], #1236
   10708:	d4 d4 d4 d4 	ldrble	sp, [r4], #1236
   1070c:	d4 d4 d4 d4 	ldrble	sp, [r4], #1236
   10710:	d4 d4 d4 d4 	ldrble	sp, [r4], #1236
   10714:	d4 d4 d4 d4 	ldrble	sp, [r4], #1236
   10718:	d4 d4 d4 d4 	ldrble	sp, [r4], #1236
   1071c:	d4 d4 d4 d4 	ldrble	sp, [r4], #1236
   10720:	d4 d4 d4 d4 	ldrble	sp, [r4], #1236
   10724:	d4 d4 d4 d4 	ldrble	sp, [r4], #1236
   10728:	d4 d4 d4 d4 	ldrble	sp, [r4], #1236
   1072c:	d4 d4 d4 d4 	ldrble	sp, [r4], #1236
   10730:	d4 d4 d4 d4 	ldrble	sp, [r4], #1236
   10734:	d4 d4 d4 d4 	ldrble	sp, [r4], #1236
   10738:	d4 d4 d4 d4 	ldrble	sp, [r4], #1236
   1073c:	d4 d4 d4 d4 	ldrble	sp, [r4], #1236
   10740:	d4 d4 d4 d4 	ldrble	sp, [r4], #1236
   10744:	d4 d4 d4 d4 	ldrble	sp, [r4], #1236
   10748:	d4 d4 d4 d4 	ldrble	sp, [r4], #1236
   1074c:	d4 d4 d4 d4 	ldrble	sp, [r4], #1236
   10750:	d4 d4 d4 d4 	ldrble	sp, [r4], #1236
   10754:	d4 d4 d4 d4 	ldrble	sp, [r4], #1236
   10758:	d4 d4 d4 d4 	ldrble	sp, [r4], #1236
   1075c:	d4 d4 d4 d4 	ldrble	sp, [r4], #1236
   10760:	d4 d4 d4 d4 	ldrble	sp, [r4], #1236
   10764:	d4 d4 d4 d4 	ldrble	sp, [r4], #1236
   10768:	d4 d4 d4 d4 	ldrble	sp, [r4], #1236
   1076c:	d4 d4 d4 d4 	ldrble	sp, [r4], #1236
   10770:	d4 d4 d4 d4 	ldrble	sp, [r4], #1236
   10774:	d4 d4 d4 d4 	ldrble	sp, [r4], #1236
   10778:	d4 d4 d4 d4 	ldrble	sp, [r4], #1236
   1077c:	d4 d4 d4 d4 	ldrble	sp, [r4], #1236
   10780:	d4 d4 d4 d4 	ldrble	sp, [r4], #1236
   10784:	d4 d4 d4 d4 	ldrble	sp, [r4], #1236
   10788:	d4 d4 d4 d4 	ldrble	sp, [r4], #1236
   1078c:	d4 d4 d4 d4 	ldrble	sp, [r4], #1236
   10790:	d4 d4 d4 d4 	ldrble	sp, [r4], #1236
   10794:	d4 d4 d4 d4 	ldrble	sp, [r4], #1236
   10798:	d4 d4 d4 d4 	ldrble	sp, [r4], #1236
   1079c:	d4 d4 d4 d4 	ldrble	sp, [r4], #1236
   107a0:	d4 d4 d4 d4 	ldrble	sp, [r4], #1236
   107a4:	d4 d4 d4 d4 	ldrble	sp, [r4], #1236
   107a8:	d4 d4 d4 d4 	ldrble	sp, [r4], #1236
   107ac:	d4 d4 d4 d4 	ldrble	sp, [r4], #1236
   107b0:	d4 d4 d4 d4 	ldrble	sp, [r4], #1236
   107b4:	d4 d4 d4 d4 	ldrble	sp, [r4], #1236
   107b8:	d4 d4 d4 d4 	ldrble	sp, [r4], #1236
   107bc:	d4 d4 d4 d4 	ldrble	sp, [r4], #1236
   107c0:	d4 d4 d4 d4 	ldrble	sp, [r4], #1236
   107c4:	d4 d4 d4 d4 	ldrble	sp, [r4], #1236
   107c8:	d4 d4 d4 d4 	ldrble	sp, [r4], #1236
   107cc:	d4 d4 d4 d4 	ldrble	sp, [r4], #1236
   107d0:	d4 d4 d4 d4 	ldrble	sp, [r4], #1236
   107d4:	d4 d4 d4 d4 	ldrble	sp, [r4], #1236
   107d8:	d4 d4 d4 d4 	ldrble	sp, [r4], #1236
   107dc:	d4 d4 d4 d4 	ldrble	sp, [r4], #1236
   107e0:	d4 d4 d4 d4 	ldrble	sp, [r4], #1236
   107e4:	d4 d4 d4 d4 	ldrble	sp, [r4], #1236
   107e8:	d4 d4 d4 d4 	ldrble	sp, [r4], #1236
   107ec:	d4 d4 d4 d4 	ldrble	sp, [r4], #1236
   107f0:	d4 d4 d4 d4 	ldrble	sp, [r4], #1236
   107f4:	d4 d4 d4 d4 	ldrble	sp, [r4], #1236
   107f8:	d4 d4 d4 d4 	ldrble	sp, [r4], #1236
   107fc:	d4 d4 d4 d4 	ldrble	sp, [r4], #1236
   10800:	d4 d4 d4 d4 	ldrble	sp, [r4], #1236
   10804:	d4 d4 d4 d4 	ldrble	sp, [r4], #1236
   10808:	d4 d4 d4 d4 	ldrble	sp, [r4], #1236
   1080c:	d4 d4 d4 d4 	ldrble	sp, [r4], #1236
   10810:	d4 d4 d4 d4 	ldrble	sp, [r4], #1236
   10814:	d4 d4 d4 d4 	ldrble	sp, [r4], #1236
   10818:	d4 d4 d4 d4 	ldrble	sp, [r4], #1236
   1081c:	d4 d4 d4 d4 	ldrble	sp, [r4], #1236
   10820:	d4 d4 d4 d4 	ldrble	sp, [r4], #1236
   10824:	d4 d4 d4 d4 	ldrble	sp, [r4], #1236
   10828:	d4 d4 d4 d4 	ldrble	sp, [r4], #1236
   1082c:	d4 d4 d4 d4 	ldrble	sp, [r4], #1236
   10830:	d4 d4 d4 d4 	ldrble	sp, [r4], #1236
   10834:	d4 d4 d4 d4 	ldrble	sp, [r4], #1236
   10838:	d4 d4 d4 d4 	ldrble	sp, [r4], #1236
   1083c:	d4 d4 d4 d4 	ldrble	sp, [r4], #1236
   10840:	d4 d4 d4 d4 	ldrble	sp, [r4], #1236
   10844:	d4 d4 d4 d4 	ldrble	sp, [r4], #1236
   10848:	d4 d4 d4 d4 	ldrble	sp, [r4], #1236
   1084c:	d4 d4 d4 d4 	ldrble	sp, [r4], #1236
   10850:	d4 d4 d4 d4 	ldrble	sp, [r4], #1236
   10854:	d4 d4 d4 d4 	ldrble	sp, [r4], #1236
   10858:	d4 d4 d4 d4 	ldrble	sp, [r4], #1236
   1085c:	d4 d4 d4 d4 	ldrble	sp, [r4], #1236
   10860:	d4 d4 d4 d4 	ldrble	sp, [r4], #1236
   10864:	d4 d4 d4 d4 	ldrble	sp, [r4], #1236
   10868:	d4 d4 d4 d4 	ldrble	sp, [r4], #1236
   1086c:	d4 d4 d4 d4 	ldrble	sp, [r4], #1236
   10870:	d4 d4 d4 d4 	ldrble	sp, [r4], #1236
   10874:	d4 d4 d4 d4 	ldrble	sp, [r4], #1236
   10878:	d4 d4 d4 d4 	ldrble	sp, [r4], #1236
   1087c:	d4 d4 d4 d4 	ldrble	sp, [r4], #1236
   10880:	d4 d4 d4 d4 	ldrble	sp, [r4], #1236
   10884:	d4 d4 d4 d4 	ldrble	sp, [r4], #1236
   10888:	d4 d4 d4 d4 	ldrble	sp, [r4], #1236
   1088c:	d4 d4 d4 d4 	ldrble	sp, [r4], #1236
   10890:	d4 d4 d4 d4 	ldrble	sp, [r4], #1236
   10894:	d4 d4 d4 d4 	ldrble	sp, [r4], #1236
   10898:	d4 d4 d4 d4 	ldrble	sp, [r4], #1236
   1089c:	d4 d4 d4 d4 	ldrble	sp, [r4], #1236
   108a0:	d4 d4 d4 d4 	ldrble	sp, [r4], #1236
   108a4:	d4 d4 d4 d4 	ldrble	sp, [r4], #1236
   108a8:	d4 d4 d4 d4 	ldrble	sp, [r4], #1236
   108ac:	d4 d4 d4 d4 	ldrble	sp, [r4], #1236
   108b0:	d4 d4 d4 d4 	ldrble	sp, [r4], #1236
   108b4:	d4 d4 d4 d4 	ldrble	sp, [r4], #1236
   108b8:	d4 d4 d4 d4 	ldrble	sp, [r4], #1236
   108bc:	d4 d4 d4 d4 	ldrble	sp, [r4], #1236
   108c0:	d4 d4 d4 d4 	ldrble	sp, [r4], #1236
   108c4:	d4 d4 d4 d4 	ldrble	sp, [r4], #1236
   108c8:	d4 d4 d4 d4 	ldrble	sp, [r4], #1236
   108cc:	d4 d4 d4 d4 	ldrble	sp, [r4], #1236
   108d0:	d4 d4 d4 d4 	ldrble	sp, [r4], #1236
   108d4:	d4 d4 d4 d4 	ldrble	sp, [r4], #1236
   108d8:	d4 d4 d4 d4 	ldrble	sp, [r4], #1236
   108dc:	d4 d4 d4 d4 	ldrble	sp, [r4], #1236
   108e0:	d4 d4 d4 d4 	ldrble	sp, [r4], #1236
   108e4:	d4 d4 d4 d4 	ldrble	sp, [r4], #1236
   108e8:	d4 d4 d4 d4 	ldrble	sp, [r4], #1236
   108ec:	d4 d4 d4 d4 	ldrble	sp, [r4], #1236
   108f0:	d4 d4 d4 d4 	ldrble	sp, [r4], #1236
   108f4:	d4 d4 d4 d4 	ldrble	sp, [r4], #1236
   108f8:	d4 d4 d4 d4 	ldrble	sp, [r4], #1236
   108fc:	d4 d4 d4 d4 	ldrble	sp, [r4], #1236
   10900:	d4 d4 d4 d4 	ldrble	sp, [r4], #1236
   10904:	d4 d4 d4 d4 	ldrble	sp, [r4], #1236
   10908:	d4 d4 d4 d4 	ldrble	sp, [r4], #1236
   1090c:	d4 d4 d4 d4 	ldrble	sp, [r4], #1236
   10910:	d4 d4 d4 d4 	ldrble	sp, [r4], #1236
   10914:	d4 d4 d4 d4 	ldrble	sp, [r4], #1236
   10918:	d4 d4 d4 d4 	ldrble	sp, [r4], #1236
   1091c:	d4 d4 d4 d4 	ldrble	sp, [r4], #1236
   10920:	d4 d4 d4 d4 	ldrble	sp, [r4], #1236
   10924:	d4 d4 d4 d4 	ldrble	sp, [r4], #1236
   10928:	d4 d4 d4 d4 	ldrble	sp, [r4], #1236
   1092c:	d4 d4 d4 d4 	ldrble	sp, [r4], #1236
   10930:	d4 d4 d4 d4 	ldrble	sp, [r4], #1236
   10934:	d4 d4 d4 d4 	ldrble	sp, [r4], #1236
   10938:	d4 d4 d4 d4 	ldrble	sp, [r4], #1236
   1093c:	d4 d4 d4 d4 	ldrble	sp, [r4], #1236
   10940:	d4 d4 d4 d4 	ldrble	sp, [r4], #1236
   10944:	d4 d4 d4 d4 	ldrble	sp, [r4], #1236
   10948:	d4 d4 d4 d4 	ldrble	sp, [r4], #1236
   1094c:	d4 d4 d4 d4 	ldrble	sp, [r4], #1236
   10950:	d4 d4 d4 d4 	ldrble	sp, [r4], #1236
   10954:	d4 d4 d4 d4 	ldrble	sp, [r4], #1236
   10958:	d4 d4 d4 d4 	ldrble	sp, [r4], #1236
   1095c:	d4 d4 d4 d4 	ldrble	sp, [r4], #1236
   10960:	d4 d4 d4 d4 	ldrble	sp, [r4], #1236
   10964:	d4 d4 d4 d4 	ldrble	sp, [r4], #1236
   10968:	d4 d4 d4 d4 	ldrble	sp, [r4], #1236
   1096c:	d4 d4 d4 d4 	ldrble	sp, [r4], #1236
   10970:	d4 d4 d4 d4 	ldrble	sp, [r4], #1236
   10974:	d4 d4 d4 d4 	ldrble	sp, [r4], #1236
   10978:	d4 d4 d4 d4 	ldrble	sp, [r4], #1236
   1097c:	d4 d4 d4 d4 	ldrble	sp, [r4], #1236
   10980:	d4 d4 d4 d4 	ldrble	sp, [r4], #1236
   10984:	d4 d4 d4 d4 	ldrble	sp, [r4], #1236
   10988:	d4 d4 d4 d4 	ldrble	sp, [r4], #1236
   1098c:	d4 d4 d4 d4 	ldrble	sp, [r4], #1236
   10990:	d4 d4 d4 d4 	ldrble	sp, [r4], #1236
   10994:	d4 d4 d4 d4 	ldrble	sp, [r4], #1236
   10998:	d4 d4 d4 d4 	ldrble	sp, [r4], #1236
   1099c:	d4 d4 d4 d4 	ldrble	sp, [r4], #1236
   109a0:	d4 d4 d4 d4 	ldrble	sp, [r4], #1236
   109a4:	d4 d4 d4 d4 	ldrble	sp, [r4], #1236
   109a8:	d4 d4 d4 d4 	ldrble	sp, [r4], #1236
   109ac:	d4 d4 d4 d4 	ldrble	sp, [r4], #1236
   109b0:	d4 d4 d4 d4 	ldrble	sp, [r4], #1236
   109b4:	d4 d4 d4 d4 	ldrble	sp, [r4], #1236
   109b8:	d4 d4 d4 d4 	ldrble	sp, [r4], #1236
   109bc:	d4 d4 d4 d4 	ldrble	sp, [r4], #1236
   109c0:	d4 d4 d4 d4 	ldrble	sp, [r4], #1236
   109c4:	d4 d4 d4 d4 	ldrble	sp, [r4], #1236
   109c8:	d4 d4 d4 d4 	ldrble	sp, [r4], #1236
   109cc:	d4 d4 d4 d4 	ldrble	sp, [r4], #1236
   109d0:	d4 d4 d4 d4 	ldrble	sp, [r4], #1236
   109d4:	d4 d4 d4 d4 	ldrble	sp, [r4], #1236
   109d8:	d4 d4 d4 d4 	ldrble	sp, [r4], #1236
   109dc:	d4 d4 d4 d4 	ldrble	sp, [r4], #1236
   109e0:	d4 d4 d4 d4 	ldrble	sp, [r4], #1236
   109e4:	d4 d4 d4 d4 	ldrble	sp, [r4], #1236
   109e8:	d4 d4 d4 d4 	ldrble	sp, [r4], #1236
   109ec:	d4 d4 d4 d4 	ldrble	sp, [r4], #1236
   109f0:	d4 d4 d4 d4 	ldrble	sp, [r4], #1236
   109f4:	d4 d4 d4 d4 	ldrble	sp, [r4], #1236
   109f8:	d4 d4 d4 d4 	ldrble	sp, [r4], #1236
   109fc:	d4 d4 d4 d4 	ldrble	sp, [r4], #1236
   10a00:	d4 d4 d4 d4 	ldrble	sp, [r4], #1236
   10a04:	d4 d4 d4 d4 	ldrble	sp, [r4], #1236
   10a08:	d4 d4 d4 d4 	ldrble	sp, [r4], #1236
   10a0c:	d4 d4 d4 d4 	ldrble	sp, [r4], #1236
   10a10:	d4 d4 d4 d4 	ldrble	sp, [r4], #1236
   10a14:	d4 d4 d4 d4 	ldrble	sp, [r4], #1236
   10a18:	d4 d4 d4 d4 	ldrble	sp, [r4], #1236
   10a1c:	d4 d4 d4 d4 	ldrble	sp, [r4], #1236
   10a20:	d4 d4 d4 d4 	ldrble	sp, [r4], #1236
   10a24:	d4 d4 d4 d4 	ldrble	sp, [r4], #1236
   10a28:	d4 d4 d4 d4 	ldrble	sp, [r4], #1236
   10a2c:	d4 d4 d4 d4 	ldrble	sp, [r4], #1236
   10a30:	d4 d4 d4 d4 	ldrble	sp, [r4], #1236
   10a34:	d4 d4 d4 d4 	ldrble	sp, [r4], #1236
   10a38:	d4 d4 d4 d4 	ldrble	sp, [r4], #1236
   10a3c:	d4 d4 d4 d4 	ldrble	sp, [r4], #1236
   10a40:	d4 d4 d4 d4 	ldrble	sp, [r4], #1236
   10a44:	d4 d4 d4 d4 	ldrble	sp, [r4], #1236
   10a48:	d4 d4 d4 d4 	ldrble	sp, [r4], #1236
   10a4c:	d4 d4 d4 d4 	ldrble	sp, [r4], #1236
   10a50:	d4 d4 d4 d4 	ldrble	sp, [r4], #1236
   10a54:	d4 d4 d4 d4 	ldrble	sp, [r4], #1236
   10a58:	d4 d4 d4 d4 	ldrble	sp, [r4], #1236
   10a5c:	d4 d4 d4 d4 	ldrble	sp, [r4], #1236
   10a60:	d4 d4 d4 d4 	ldrble	sp, [r4], #1236
   10a64:	d4 d4 d4 d4 	ldrble	sp, [r4], #1236
   10a68:	d4 d4 d4 d4 	ldrble	sp, [r4], #1236
   10a6c:	d4 d4 d4 d4 	ldrble	sp, [r4], #1236
   10a70:	d4 d4 d4 d4 	ldrble	sp, [r4], #1236
   10a74:	d4 d4 d4 d4 	ldrble	sp, [r4], #1236
   10a78:	d4 d4 d4 d4 	ldrble	sp, [r4], #1236
   10a7c:	d4 d4 d4 d4 	ldrble	sp, [r4], #1236
   10a80:	d4 d4 d4 d4 	ldrble	sp, [r4], #1236
   10a84:	d4 d4 d4 d4 	ldrble	sp, [r4], #1236
   10a88:	d4 d4 d4 d4 	ldrble	sp, [r4], #1236
   10a8c:	d4 d4 d4 d4 	ldrble	sp, [r4], #1236
   10a90:	d4 d4 d4 d4 	ldrble	sp, [r4], #1236
   10a94:	d4 d4 d4 d4 	ldrble	sp, [r4], #1236
   10a98:	d4 d4 d4 d4 	ldrble	sp, [r4], #1236
   10a9c:	d4 d4 d4 d4 	ldrble	sp, [r4], #1236
   10aa0:	d4 d4 d4 d4 	ldrble	sp, [r4], #1236
   10aa4:	d4 d4 d4 d4 	ldrble	sp, [r4], #1236
   10aa8:	d4 d4 d4 d4 	ldrble	sp, [r4], #1236
   10aac:	d4 d4 d4 d4 	ldrble	sp, [r4], #1236
   10ab0:	d4 d4 d4 d4 	ldrble	sp, [r4], #1236
   10ab4:	d4 d4 d4 d4 	ldrble	sp, [r4], #1236
   10ab8:	d4 d4 d4 d4 	ldrble	sp, [r4], #1236
   10abc:	d4 d4 d4 d4 	ldrble	sp, [r4], #1236
   10ac0:	d4 d4 d4 d4 	ldrble	sp, [r4], #1236
   10ac4:	d4 d4 d4 d4 	ldrble	sp, [r4], #1236
   10ac8:	d4 d4 d4 d4 	ldrble	sp, [r4], #1236
   10acc:	d4 d4 d4 d4 	ldrble	sp, [r4], #1236
   10ad0:	d4 d4 d4 d4 	ldrble	sp, [r4], #1236
   10ad4:	d4 d4 d4 d4 	ldrble	sp, [r4], #1236
   10ad8:	d4 d4 d4 d4 	ldrble	sp, [r4], #1236
   10adc:	d4 d4 d4 d4 	ldrble	sp, [r4], #1236
   10ae0:	d4 d4 d4 d4 	ldrble	sp, [r4], #1236
   10ae4:	d4 d4 d4 d4 	ldrble	sp, [r4], #1236
   10ae8:	d4 d4 d4 d4 	ldrble	sp, [r4], #1236
   10aec:	d4 d4 d4 d4 	ldrble	sp, [r4], #1236
   10af0:	d4 d4 d4 d4 	ldrble	sp, [r4], #1236
   10af4:	d4 d4 d4 d4 	ldrble	sp, [r4], #1236
   10af8:	d4 d4 d4 d4 	ldrble	sp, [r4], #1236
   10afc:	d4 d4 d4 d4 	ldrble	sp, [r4], #1236
   10b00:	d4 d4 d4 d4 	ldrble	sp, [r4], #1236
   10b04:	d4 d4 d4 d4 	ldrble	sp, [r4], #1236
   10b08:	d4 d4 d4 d4 	ldrble	sp, [r4], #1236
   10b0c:	d4 d4 d4 d4 	ldrble	sp, [r4], #1236
   10b10:	d4 d4 d4 d4 	ldrble	sp, [r4], #1236
   10b14:	d4 d4 d4 d4 	ldrble	sp, [r4], #1236
   10b18:	d4 d4 d4 d4 	ldrble	sp, [r4], #1236
   10b1c:	d4 d4 d4 d4 	ldrble	sp, [r4], #1236
   10b20:	d4 d4 d4 d4 	ldrble	sp, [r4], #1236
   10b24:	d4 d4 d4 d4 	ldrble	sp, [r4], #1236
   10b28:	d4 d4 d4 d4 	ldrble	sp, [r4], #1236
   10b2c:	d4 d4 d4 d4 	ldrble	sp, [r4], #1236
   10b30:	d4 d4 d4 d4 	ldrble	sp, [r4], #1236
   10b34:	d4 d4 d4 d4 	ldrble	sp, [r4], #1236
   10b38:	d4 d4 d4 d4 	ldrble	sp, [r4], #1236
   10b3c:	d4 d4 d4 d4 	ldrble	sp, [r4], #1236
   10b40:	d4 d4 d4 d4 	ldrble	sp, [r4], #1236
   10b44:	d4 d4 d4 d4 	ldrble	sp, [r4], #1236
   10b48:	d4 d4 d4 d4 	ldrble	sp, [r4], #1236
   10b4c:	d4 d4 d4 d4 	ldrble	sp, [r4], #1236
   10b50:	d4 d4 d4 d4 	ldrble	sp, [r4], #1236
   10b54:	d4 d4 d4 d4 	ldrble	sp, [r4], #1236
   10b58:	d4 d4 d4 d4 	ldrble	sp, [r4], #1236
   10b5c:	d4 d4 d4 d4 	ldrble	sp, [r4], #1236
   10b60:	d4 d4 d4 d4 	ldrble	sp, [r4], #1236
   10b64:	d4 d4 d4 d4 	ldrble	sp, [r4], #1236
   10b68:	d4 d4 d4 d4 	ldrble	sp, [r4], #1236
   10b6c:	d4 d4 d4 d4 	ldrble	sp, [r4], #1236
   10b70:	d4 d4 d4 d4 	ldrble	sp, [r4], #1236
   10b74:	d4 d4 d4 d4 	ldrble	sp, [r4], #1236
   10b78:	d4 d4 d4 d4 	ldrble	sp, [r4], #1236
   10b7c:	d4 d4 d4 d4 	ldrble	sp, [r4], #1236
   10b80:	d4 d4 d4 d4 	ldrble	sp, [r4], #1236
   10b84:	d4 d4 d4 d4 	ldrble	sp, [r4], #1236
   10b88:	d4 d4 d4 d4 	ldrble	sp, [r4], #1236
   10b8c:	d4 d4 d4 d4 	ldrble	sp, [r4], #1236
   10b90:	d4 d4 d4 d4 	ldrble	sp, [r4], #1236
   10b94:	d4 d4 d4 d4 	ldrble	sp, [r4], #1236
   10b98:	d4 d4 d4 d4 	ldrble	sp, [r4], #1236
   10b9c:	d4 d4 d4 d4 	ldrble	sp, [r4], #1236
   10ba0:	d4 d4 d4 d4 	ldrble	sp, [r4], #1236
   10ba4:	d4 d4 d4 d4 	ldrble	sp, [r4], #1236
   10ba8:	d4 d4 d4 d4 	ldrble	sp, [r4], #1236
   10bac:	d4 d4 d4 d4 	ldrble	sp, [r4], #1236
   10bb0:	d4 d4 d4 d4 	ldrble	sp, [r4], #1236
   10bb4:	d4 d4 d4 d4 	ldrble	sp, [r4], #1236
   10bb8:	d4 d4 d4 d4 	ldrble	sp, [r4], #1236
   10bbc:	d4 d4 d4 d4 	ldrble	sp, [r4], #1236
   10bc0:	d4 d4 d4 d4 	ldrble	sp, [r4], #1236
   10bc4:	d4 d4 d4 d4 	ldrble	sp, [r4], #1236
   10bc8:	d4 d4 d4 d4 	ldrble	sp, [r4], #1236
   10bcc:	d4 d4 d4 d4 	ldrble	sp, [r4], #1236
   10bd0:	d4 d4 d4 d4 	ldrble	sp, [r4], #1236
   10bd4:	d4 d4 d4 d4 	ldrble	sp, [r4], #1236
   10bd8:	d4 d4 d4 d4 	ldrble	sp, [r4], #1236
   10bdc:	d4 d4 d4 d4 	ldrble	sp, [r4], #1236
   10be0:	d4 d4 d4 d4 	ldrble	sp, [r4], #1236
   10be4:	d4 d4 d4 d4 	ldrble	sp, [r4], #1236
   10be8:	d4 d4 d4 d4 	ldrble	sp, [r4], #1236
   10bec:	d4 d4 d4 d4 	ldrble	sp, [r4], #1236
   10bf0:	d4 d4 d4 d4 	ldrble	sp, [r4], #1236
   10bf4:	d4 d4 d4 d4 	ldrble	sp, [r4], #1236
   10bf8:	d4 d4 d4 d4 	ldrble	sp, [r4], #1236
   10bfc:	d4 d4 d4 d4 	ldrble	sp, [r4], #1236
   10c00:	d4 d4 d4 d4 	ldrble	sp, [r4], #1236
   10c04:	d4 d4 d4 d4 	ldrble	sp, [r4], #1236
   10c08:	d4 d4 d4 d4 	ldrble	sp, [r4], #1236
   10c0c:	d4 d4 d4 d4 	ldrble	sp, [r4], #1236
   10c10:	d4 d4 d4 d4 	ldrble	sp, [r4], #1236
   10c14:	d4 d4 d4 d4 	ldrble	sp, [r4], #1236
   10c18:	d4 d4 d4 d4 	ldrble	sp, [r4], #1236
   10c1c:	d4 d4 d4 d4 	ldrble	sp, [r4], #1236
   10c20:	d4 d4 d4 d4 	ldrble	sp, [r4], #1236
   10c24:	d4 d4 d4 d4 	ldrble	sp, [r4], #1236
   10c28:	d4 d4 d4 d4 	ldrble	sp, [r4], #1236
   10c2c:	d4 d4 d4 d4 	ldrble	sp, [r4], #1236
   10c30:	d4 d4 d4 d4 	ldrble	sp, [r4], #1236
   10c34:	d4 d4 d4 d4 	ldrble	sp, [r4], #1236
   10c38:	d4 d4 d4 d4 	ldrble	sp, [r4], #1236
   10c3c:	d4 d4 d4 d4 	ldrble	sp, [r4], #1236
   10c40:	d4 d4 d4 d4 	ldrble	sp, [r4], #1236
   10c44:	d4 d4 d4 d4 	ldrble	sp, [r4], #1236
   10c48:	d4 d4 d4 d4 	ldrble	sp, [r4], #1236
   10c4c:	d4 d4 d4 d4 	ldrble	sp, [r4], #1236
   10c50:	d4 d4 d4 d4 	ldrble	sp, [r4], #1236
   10c54:	d4 d4 d4 d4 	ldrble	sp, [r4], #1236
   10c58:	d4 d4 d4 d4 	ldrble	sp, [r4], #1236
   10c5c:	d4 d4 d4 d4 	ldrble	sp, [r4], #1236
   10c60:	d4 d4 d4 d4 	ldrble	sp, [r4], #1236
   10c64:	d4 d4 d4 d4 	ldrble	sp, [r4], #1236
   10c68:	d4 d4 d4 d4 	ldrble	sp, [r4], #1236
   10c6c:	d4 d4 d4 d4 	ldrble	sp, [r4], #1236
   10c70:	d4 d4 d4 d4 	ldrble	sp, [r4], #1236
   10c74:	d4 d4 d4 d4 	ldrble	sp, [r4], #1236
   10c78:	d4 d4 d4 d4 	ldrble	sp, [r4], #1236
   10c7c:	d4 d4 d4 d4 	ldrble	sp, [r4], #1236
   10c80:	d4 d4 d4 d4 	ldrble	sp, [r4], #1236
   10c84:	d4 d4 d4 d4 	ldrble	sp, [r4], #1236
   10c88:	d4 d4 d4 d4 	ldrble	sp, [r4], #1236
   10c8c:	d4 d4 d4 d4 	ldrble	sp, [r4], #1236
   10c90:	d4 d4 d4 d4 	ldrble	sp, [r4], #1236
   10c94:	d4 d4 d4 d4 	ldrble	sp, [r4], #1236
   10c98:	d4 d4 d4 d4 	ldrble	sp, [r4], #1236
   10c9c:	d4 d4 d4 d4 	ldrble	sp, [r4], #1236
   10ca0:	d4 d4 d4 d4 	ldrble	sp, [r4], #1236
   10ca4:	d4 d4 d4 d4 	ldrble	sp, [r4], #1236
   10ca8:	d4 d4 d4 d4 	ldrble	sp, [r4], #1236
   10cac:	d4 d4 d4 d4 	ldrble	sp, [r4], #1236
   10cb0:	d4 d4 d4 d4 	ldrble	sp, [r4], #1236
   10cb4:	d4 d4 d4 d4 	ldrble	sp, [r4], #1236
   10cb8:	d4 d4 d4 d4 	ldrble	sp, [r4], #1236
   10cbc:	d4 d4 d4 d4 	ldrble	sp, [r4], #1236
   10cc0:	d4 d4 d4 d4 	ldrble	sp, [r4], #1236
   10cc4:	d4 d4 d4 d4 	ldrble	sp, [r4], #1236
   10cc8:	d4 d4 d4 d4 	ldrble	sp, [r4], #1236
   10ccc:	d4 d4 d4 d4 	ldrble	sp, [r4], #1236
   10cd0:	d4 d4 d4 d4 	ldrble	sp, [r4], #1236
   10cd4:	d4 d4 d4 d4 	ldrble	sp, [r4], #1236
   10cd8:	d4 d4 d4 d4 	ldrble	sp, [r4], #1236
   10cdc:	d4 d4 d4 d4 	ldrble	sp, [r4], #1236
   10ce0:	d4 d4 d4 d4 	ldrble	sp, [r4], #1236
   10ce4:	d4 d4 d4 d4 	ldrble	sp, [r4], #1236
   10ce8:	d4 d4 d4 d4 	ldrble	sp, [r4], #1236
   10cec:	d4 d4 d4 d4 	ldrble	sp, [r4], #1236
   10cf0:	d4 d4 d4 d4 	ldrble	sp, [r4], #1236
   10cf4:	d4 d4 d4 d4 	ldrble	sp, [r4], #1236
   10cf8:	d4 d4 d4 d4 	ldrble	sp, [r4], #1236
   10cfc:	d4 d4 d4 d4 	ldrble	sp, [r4], #1236
   10d00:	d4 d4 d4 d4 	ldrble	sp, [r4], #1236
   10d04:	d4 d4 d4 d4 	ldrble	sp, [r4], #1236
   10d08:	d4 d4 d4 d4 	ldrble	sp, [r4], #1236
   10d0c:	d4 d4 d4 d4 	ldrble	sp, [r4], #1236
   10d10:	d4 d4 d4 d4 	ldrble	sp, [r4], #1236
   10d14:	d4 d4 d4 d4 	ldrble	sp, [r4], #1236
   10d18:	d4 d4 d4 d4 	ldrble	sp, [r4], #1236
   10d1c:	d4 d4 d4 d4 	ldrble	sp, [r4], #1236
   10d20:	d4 d4 d4 d4 	ldrble	sp, [r4], #1236
   10d24:	d4 d4 d4 d4 	ldrble	sp, [r4], #1236
   10d28:	d4 d4 d4 d4 	ldrble	sp, [r4], #1236
   10d2c:	d4 d4 d4 d4 	ldrble	sp, [r4], #1236
   10d30:	d4 d4 d4 d4 	ldrble	sp, [r4], #1236
   10d34:	d4 d4 d4 d4 	ldrble	sp, [r4], #1236
   10d38:	d4 d4 d4 d4 	ldrble	sp, [r4], #1236
   10d3c:	d4 d4 d4 d4 	ldrble	sp, [r4], #1236
   10d40:	d4 d4 d4 d4 	ldrble	sp, [r4], #1236
   10d44:	d4 d4 d4 d4 	ldrble	sp, [r4], #1236
   10d48:	d4 d4 d4 d4 	ldrble	sp, [r4], #1236
   10d4c:	d4 d4 d4 d4 	ldrble	sp, [r4], #1236
   10d50:	d4 d4 d4 d4 	ldrble	sp, [r4], #1236
   10d54:	d4 d4 d4 d4 	ldrble	sp, [r4], #1236
   10d58:	d4 d4 d4 d4 	ldrble	sp, [r4], #1236
   10d5c:	d4 d4 d4 d4 	ldrble	sp, [r4], #1236
   10d60:	d4 d4 d4 d4 	ldrble	sp, [r4], #1236
   10d64:	d4 d4 d4 d4 	ldrble	sp, [r4], #1236
   10d68:	d4 d4 d4 d4 	ldrble	sp, [r4], #1236
   10d6c:	d4 d4 d4 d4 	ldrble	sp, [r4], #1236
   10d70:	d4 d4 d4 d4 	ldrble	sp, [r4], #1236
   10d74:	d4 d4 d4 d4 	ldrble	sp, [r4], #1236
   10d78:	d4 d4 d4 d4 	ldrble	sp, [r4], #1236
   10d7c:	d4 d4 d4 d4 	ldrble	sp, [r4], #1236
   10d80:	d4 d4 d4 d4 	ldrble	sp, [r4], #1236
   10d84:	d4 d4 d4 d4 	ldrble	sp, [r4], #1236
   10d88:	d4 d4 d4 d4 	ldrble	sp, [r4], #1236
   10d8c:	d4 d4 d4 d4 	ldrble	sp, [r4], #1236
   10d90:	d4 d4 d4 d4 	ldrble	sp, [r4], #1236
   10d94:	d4 d4 d4 d4 	ldrble	sp, [r4], #1236
   10d98:	d4 d4 d4 d4 	ldrble	sp, [r4], #1236
   10d9c:	d4 d4 d4 d4 	ldrble	sp, [r4], #1236
   10da0:	d4 d4 d4 d4 	ldrble	sp, [r4], #1236
   10da4:	d4 d4 d4 d4 	ldrble	sp, [r4], #1236
   10da8:	d4 d4 d4 d4 	ldrble	sp, [r4], #1236
   10dac:	d4 d4 d4 d4 	ldrble	sp, [r4], #1236
   10db0:	d4 d4 d4 d4 	ldrble	sp, [r4], #1236
   10db4:	d4 d4 d4 d4 	ldrble	sp, [r4], #1236
   10db8:	d4 d4 d4 d4 	ldrble	sp, [r4], #1236
   10dbc:	d4 d4 d4 d4 	ldrble	sp, [r4], #1236
   10dc0:	d4 d4 d4 d4 	ldrble	sp, [r4], #1236
   10dc4:	d4 d4 d4 d4 	ldrble	sp, [r4], #1236
   10dc8:	d4 d4 d4 d4 	ldrble	sp, [r4], #1236
   10dcc:	d4 d4 d4 d4 	ldrble	sp, [r4], #1236
   10dd0:	d4 d4 d4 d4 	ldrble	sp, [r4], #1236
   10dd4:	d4 d4 d4 d4 	ldrble	sp, [r4], #1236
   10dd8:	d4 d4 d4 d4 	ldrble	sp, [r4], #1236
   10ddc:	d4 d4 d4 d4 	ldrble	sp, [r4], #1236
   10de0:	d4 d4 d4 d4 	ldrble	sp, [r4], #1236
   10de4:	d4 d4 d4 d4 	ldrble	sp, [r4], #1236
   10de8:	d4 d4 d4 d4 	ldrble	sp, [r4], #1236
   10dec:	d4 d4 d4 d4 	ldrble	sp, [r4], #1236
   10df0:	d4 d4 d4 d4 	ldrble	sp, [r4], #1236
   10df4:	d4 d4 d4 d4 	ldrble	sp, [r4], #1236
   10df8:	d4 d4 d4 d4 	ldrble	sp, [r4], #1236
   10dfc:	d4 d4 d4 d4 	ldrble	sp, [r4], #1236
   10e00:	d4 d4 d4 d4 	ldrble	sp, [r4], #1236
   10e04:	d4 d4 d4 d4 	ldrble	sp, [r4], #1236
   10e08:	d4 d4 d4 d4 	ldrble	sp, [r4], #1236
   10e0c:	d4 d4 d4 d4 	ldrble	sp, [r4], #1236
   10e10:	d4 d4 d4 d4 	ldrble	sp, [r4], #1236
   10e14:	d4 d4 d4 d4 	ldrble	sp, [r4], #1236
   10e18:	d4 d4 d4 d4 	ldrble	sp, [r4], #1236
   10e1c:	d4 d4 d4 d4 	ldrble	sp, [r4], #1236
   10e20:	d4 d4 d4 d4 	ldrble	sp, [r4], #1236
   10e24:	d4 d4 d4 d4 	ldrble	sp, [r4], #1236
   10e28:	d4 d4 d4 d4 	ldrble	sp, [r4], #1236
   10e2c:	d4 d4 d4 d4 	ldrble	sp, [r4], #1236
   10e30:	d4 d4 d4 d4 	ldrble	sp, [r4], #1236
   10e34:	d4 d4 d4 d4 	ldrble	sp, [r4], #1236
   10e38:	d4 d4 d4 d4 	ldrble	sp, [r4], #1236
   10e3c:	d4 d4 d4 d4 	ldrble	sp, [r4], #1236
   10e40:	d4 d4 d4 d4 	ldrble	sp, [r4], #1236
   10e44:	d4 d4 d4 d4 	ldrble	sp, [r4], #1236
   10e48:	d4 d4 d4 d4 	ldrble	sp, [r4], #1236
   10e4c:	d4 d4 d4 d4 	ldrble	sp, [r4], #1236
   10e50:	d4 d4 d4 d4 	ldrble	sp, [r4], #1236
   10e54:	d4 d4 d4 d4 	ldrble	sp, [r4], #1236
   10e58:	d4 d4 d4 d4 	ldrble	sp, [r4], #1236
   10e5c:	d4 d4 d4 d4 	ldrble	sp, [r4], #1236
   10e60:	d4 d4 d4 d4 	ldrble	sp, [r4], #1236
   10e64:	d4 d4 d4 d4 	ldrble	sp, [r4], #1236
   10e68:	d4 d4 d4 d4 	ldrble	sp, [r4], #1236
   10e6c:	d4 d4 d4 d4 	ldrble	sp, [r4], #1236
   10e70:	d4 d4 d4 d4 	ldrble	sp, [r4], #1236
   10e74:	d4 d4 d4 d4 	ldrble	sp, [r4], #1236
   10e78:	d4 d4 d4 d4 	ldrble	sp, [r4], #1236
   10e7c:	d4 d4 d4 d4 	ldrble	sp, [r4], #1236
   10e80:	d4 d4 d4 d4 	ldrble	sp, [r4], #1236
   10e84:	d4 d4 d4 d4 	ldrble	sp, [r4], #1236
   10e88:	d4 d4 d4 d4 	ldrble	sp, [r4], #1236
   10e8c:	d4 d4 d4 d4 	ldrble	sp, [r4], #1236
   10e90:	d4 d4 d4 d4 	ldrble	sp, [r4], #1236
   10e94:	d4 d4 d4 d4 	ldrble	sp, [r4], #1236
   10e98:	d4 d4 d4 d4 	ldrble	sp, [r4], #1236
   10e9c:	d4 d4 d4 d4 	ldrble	sp, [r4], #1236
   10ea0:	d4 d4 d4 d4 	ldrble	sp, [r4], #1236
   10ea4:	d4 d4 d4 d4 	ldrble	sp, [r4], #1236
   10ea8:	d4 d4 d4 d4 	ldrble	sp, [r4], #1236
   10eac:	d4 d4 d4 d4 	ldrble	sp, [r4], #1236
   10eb0:	d4 d4 d4 d4 	ldrble	sp, [r4], #1236
   10eb4:	d4 d4 d4 d4 	ldrble	sp, [r4], #1236
   10eb8:	d4 d4 d4 d4 	ldrble	sp, [r4], #1236
   10ebc:	d4 d4 d4 d4 	ldrble	sp, [r4], #1236
   10ec0:	d4 d4 d4 d4 	ldrble	sp, [r4], #1236
   10ec4:	d4 d4 d4 d4 	ldrble	sp, [r4], #1236
   10ec8:	d4 d4 d4 d4 	ldrble	sp, [r4], #1236
   10ecc:	d4 d4 d4 d4 	ldrble	sp, [r4], #1236
   10ed0:	d4 d4 d4 d4 	ldrble	sp, [r4], #1236
   10ed4:	d4 d4 d4 d4 	ldrble	sp, [r4], #1236
   10ed8:	d4 d4 d4 d4 	ldrble	sp, [r4], #1236
   10edc:	d4 d4 d4 d4 	ldrble	sp, [r4], #1236
   10ee0:	d4 d4 d4 d4 	ldrble	sp, [r4], #1236
   10ee4:	d4 d4 d4 d4 	ldrble	sp, [r4], #1236
   10ee8:	d4 d4 d4 d4 	ldrble	sp, [r4], #1236
   10eec:	d4 d4 d4 d4 	ldrble	sp, [r4], #1236
   10ef0:	d4 d4 d4 d4 	ldrble	sp, [r4], #1236
   10ef4:	d4 d4 d4 d4 	ldrble	sp, [r4], #1236
   10ef8:	d4 d4 d4 d4 	ldrble	sp, [r4], #1236
   10efc:	d4 d4 d4 d4 	ldrble	sp, [r4], #1236
   10f00:	d4 d4 d4 d4 	ldrble	sp, [r4], #1236
   10f04:	d4 d4 d4 d4 	ldrble	sp, [r4], #1236
   10f08:	d4 d4 d4 d4 	ldrble	sp, [r4], #1236
   10f0c:	d4 d4 d4 d4 	ldrble	sp, [r4], #1236
   10f10:	d4 d4 d4 d4 	ldrble	sp, [r4], #1236
   10f14:	d4 d4 d4 d4 	ldrble	sp, [r4], #1236
   10f18:	d4 d4 d4 d4 	ldrble	sp, [r4], #1236
   10f1c:	d4 d4 d4 d4 	ldrble	sp, [r4], #1236
   10f20:	d4 d4 d4 d4 	ldrble	sp, [r4], #1236
   10f24:	d4 d4 d4 d4 	ldrble	sp, [r4], #1236
   10f28:	d4 d4 d4 d4 	ldrble	sp, [r4], #1236
   10f2c:	d4 d4 d4 d4 	ldrble	sp, [r4], #1236
   10f30:	d4 d4 d4 d4 	ldrble	sp, [r4], #1236
   10f34:	d4 d4 d4 d4 	ldrble	sp, [r4], #1236
   10f38:	d4 d4 d4 d4 	ldrble	sp, [r4], #1236
   10f3c:	d4 d4 d4 d4 	ldrble	sp, [r4], #1236
   10f40:	d4 d4 d4 d4 	ldrble	sp, [r4], #1236
   10f44:	d4 d4 d4 d4 	ldrble	sp, [r4], #1236
   10f48:	d4 d4 d4 d4 	ldrble	sp, [r4], #1236
   10f4c:	d4 d4 d4 d4 	ldrble	sp, [r4], #1236
   10f50:	d4 d4 d4 d4 	ldrble	sp, [r4], #1236
   10f54:	d4 d4 d4 d4 	ldrble	sp, [r4], #1236
   10f58:	d4 d4 d4 d4 	ldrble	sp, [r4], #1236
   10f5c:	d4 d4 d4 d4 	ldrble	sp, [r4], #1236
   10f60:	d4 d4 d4 d4 	ldrble	sp, [r4], #1236
   10f64:	d4 d4 d4 d4 	ldrble	sp, [r4], #1236
   10f68:	d4 d4 d4 d4 	ldrble	sp, [r4], #1236
   10f6c:	d4 d4 d4 d4 	ldrble	sp, [r4], #1236
   10f70:	d4 d4 d4 d4 	ldrble	sp, [r4], #1236
   10f74:	d4 d4 d4 d4 	ldrble	sp, [r4], #1236
   10f78:	d4 d4 d4 d4 	ldrble	sp, [r4], #1236
   10f7c:	d4 d4 d4 d4 	ldrble	sp, [r4], #1236
   10f80:	d4 d4 d4 d4 	ldrble	sp, [r4], #1236
   10f84:	d4 d4 d4 d4 	ldrble	sp, [r4], #1236
   10f88:	d4 d4 d4 d4 	ldrble	sp, [r4], #1236
   10f8c:	d4 d4 d4 d4 	ldrble	sp, [r4], #1236
   10f90:	d4 d4 d4 d4 	ldrble	sp, [r4], #1236
   10f94:	d4 d4 d4 d4 	ldrble	sp, [r4], #1236
   10f98:	d4 d4 d4 d4 	ldrble	sp, [r4], #1236
   10f9c:	d4 d4 d4 d4 	ldrble	sp, [r4], #1236
   10fa0:	d4 d4 d4 d4 	ldrble	sp, [r4], #1236
   10fa4:	d4 d4 d4 d4 	ldrble	sp, [r4], #1236
   10fa8:	d4 d4 d4 d4 	ldrble	sp, [r4], #1236
   10fac:	d4 d4 d4 d4 	ldrble	sp, [r4], #1236
   10fb0:	d4 d4 d4 d4 	ldrble	sp, [r4], #1236
   10fb4:	d4 d4 d4 d4 	ldrble	sp, [r4], #1236
   10fb8:	d4 d4 d4 d4 	ldrble	sp, [r4], #1236
   10fbc:	d4 d4 d4 d4 	ldrble	sp, [r4], #1236
   10fc0:	d4 d4 d4 d4 	ldrble	sp, [r4], #1236
   10fc4:	d4 d4 d4 d4 	ldrble	sp, [r4], #1236
   10fc8:	d4 d4 d4 d4 	ldrble	sp, [r4], #1236
   10fcc:	d4 d4 d4 d4 	ldrble	sp, [r4], #1236
   10fd0:	d4 d4 d4 d4 	ldrble	sp, [r4], #1236
   10fd4:	d4 d4 d4 d4 	ldrble	sp, [r4], #1236
   10fd8:	d4 d4 d4 d4 	ldrble	sp, [r4], #1236
   10fdc:	d4 d4 d4 d4 	ldrble	sp, [r4], #1236
   10fe0:	d4 d4 d4 d4 	ldrble	sp, [r4], #1236
   10fe4:	d4 d4 d4 d4 	ldrble	sp, [r4], #1236
   10fe8:	d4 d4 d4 d4 	ldrble	sp, [r4], #1236
   10fec:	d4 d4 d4 d4 	ldrble	sp, [r4], #1236
   10ff0:	d4 d4 d4 d4 	ldrble	sp, [r4], #1236
   10ff4:	d4 d4 d4 d4 	ldrble	sp, [r4], #1236
   10ff8:	d4 d4 d4 d4 	ldrble	sp, [r4], #1236
   10ffc:	d4 d4 d4 d4 	ldrble	sp, [r4], #1236

exception_vector_table:
   11000:	5b 04 00 ea 	b	#4460 <exceptionEntry0x00>
   11004:	98 04 00 ea 	b	#4704 <exceptionEntry0x04>
   11008:	9f 04 00 ea 	b	#4732 <exceptionEntry0x08>
   1100c:	a6 04 00 ea 	b	#4760 <exceptionEntry0x0c>
   11010:	ad 04 00 ea 	b	#4788 <exceptionEntry0x10>
   11014:	b4 04 00 ea 	b	#4816 <exceptionEntry0x14>
   11018:	bb 04 00 ea 	b	#4844 <exceptionEntry0x18>
   1101c:	c2 04 00 ea 	b	#4872 <exceptionEntry0x1c>

serial.hex:
   11020:	00 48 2d e9 	push	{r11, lr}
   11024:	0d b0 a0 e1 	mov	r11, sp
   11028:	38 d0 4d e2 	sub	sp, sp, #56
   1102c:	18 10 0b e5 	str	r1, [r11, #-24]
   11030:	aa 1a 0a e3 	movw	r1, #43690
   11034:	aa 1a 4a e3 	movt	r1, #43690
   11038:	04 10 0b e5 	str	r1, [r11, #-4]
   1103c:	08 10 0b e5 	str	r1, [r11, #-8]
   11040:	08 10 a0 e3 	mov	r1, #8
   11044:	0c 10 0b e5 	str	r1, [r11, #-12]
   11048:	18 10 1b e5 	ldr	r1, [r11, #-24]
   1104c:	10 10 0b e5 	str	r1, [r11, #-16]
   11050:	1c 00 8d e5 	str	r0, [sp, #28]
   11054:	ff ff ff ea 	b	#-4 <serial.hex+0x38>
   11058:	0c 00 1b e5 	ldr	r0, [r11, #-12]
   1105c:	00 00 50 e3 	cmp	r0, #0
   11060:	1d 00 00 0a 	beq	#116 <serial.hex+0xbc>
   11064:	ff ff ff ea 	b	#-4 <serial.hex+0x48>
   11068:	10 00 1b e5 	ldr	r0, [r11, #-16]
   1106c:	0f 00 00 e2 	and	r0, r0, #15
   11070:	00 00 50 e1 	cmp	r0, r0
   11074:	18 00 8d e5 	str	r0, [sp, #24]
   11078:	1c 00 00 0a 	beq	#112 <serial.hex+0xd0>
   1107c:	23 00 00 ea 	b	#140 <serial.hex+0xf0>
   11080:	11 00 5b e5 	ldrb	r0, [r11, #-17]
   11084:	30 00 80 e2 	add	r0, r0, #48
   11088:	70 10 ef e6 	uxtb	r1, r0
   1108c:	00 00 51 e1 	cmp	r1, r0
   11090:	14 00 8d e5 	str	r0, [sp, #20]
   11094:	35 00 00 1a 	bne	#212 <serial.hex+0x150>
   11098:	38 00 00 ea 	b	#224 <serial.hex+0x160>
   1109c:	11 00 5b e5 	ldrb	r0, [r11, #-17]
   110a0:	0a 00 40 e2 	sub	r0, r0, #10
   110a4:	70 10 ef e6 	uxtb	r1, r0
   110a8:	00 00 51 e1 	cmp	r1, r0
   110ac:	10 00 8d e5 	str	r0, [sp, #16]
   110b0:	36 00 00 1a 	bne	#216 <serial.hex+0x170>
   110b4:	39 00 00 ea 	b	#228 <serial.hex+0x180>
   110b8:	10 00 1b e5 	ldr	r0, [r11, #-16]
   110bc:	20 02 a0 e1 	lsr	r0, r0, #4
   110c0:	10 00 0b e5 	str	r0, [r11, #-16]
   110c4:	0c 00 1b e5 	ldr	r0, [r11, #-12]
   110c8:	01 10 40 e2 	sub	r1, r0, #1
   110cc:	01 00 50 e3 	cmp	r0, #1
   110d0:	0c 10 8d e5 	str	r1, [sp, #12]
   110d4:	42 00 00 3a 	blo	#264 <serial.hex+0x1c4>
   110d8:	45 00 00 ea 	b	#276 <serial.hex+0x1d4>
   110dc:	08 00 4b e2 	sub	r0, r11, #8
   110e0:	1c 10 9d e5 	ldr	r1, [sp, #28]
   110e4:	77 0a 00 eb 	bl	#10716 <serial.log.27>
   110e8:	0b d0 a0 e1 	mov	sp, r11
   110ec:	00 88 bd e8 	pop	{r11, pc}
   110f0:	18 00 9d e5 	ldr	r0, [sp, #24]
   110f4:	11 00 4b e5 	strb	r0, [r11, #-17]
   110f8:	0c 10 1b e5 	ldr	r1, [r11, #-12]
   110fc:	01 20 41 e2 	sub	r2, r1, #1
   11100:	01 00 51 e3 	cmp	r1, #1
   11104:	08 20 8d e5 	str	r2, [sp, #8]
   11108:	04 00 00 3a 	blo	#16 <serial.hex+0x100>
   1110c:	07 00 00 ea 	b	#28 <serial.hex+0x110>
   11110:	68 00 05 e3 	movw	r0, #20584
   11114:	03 00 40 e3 	movt	r0, #3
   11118:	00 10 a0 e3 	mov	r1, #0
   1111c:	48 00 00 eb 	bl	#288 <panic>
   11120:	d8 0e 04 e3 	movw	r0, #20184
   11124:	03 00 40 e3 	movt	r0, #3
   11128:	00 10 a0 e3 	mov	r1, #0
   1112c:	44 00 00 eb 	bl	#272 <panic>
   11130:	08 00 9d e5 	ldr	r0, [sp, #8]
   11134:	08 00 50 e3 	cmp	r0, #8
   11138:	04 00 00 3a 	blo	#16 <serial.hex+0x130>
   1113c:	ff ff ff ea 	b	#-4 <serial.hex+0x120>
   11140:	84 00 05 e3 	movw	r0, #20612
   11144:	03 00 40 e3 	movt	r0, #3
   11148:	00 10 a0 e3 	mov	r1, #0
   1114c:	3c 00 00 eb 	bl	#240 <panic>
   11150:	08 00 4b e2 	sub	r0, r11, #8
   11154:	08 10 9d e5 	ldr	r1, [sp, #8]
   11158:	01 00 80 e0 	add	r0, r0, r1
   1115c:	11 20 5b e5 	ldrb	r2, [r11, #-17]
   11160:	0a 00 52 e3 	cmp	r2, #10
   11164:	04 00 8d e5 	str	r0, [sp, #4]
   11168:	c4 ff ff 3a 	blo	#-240 <serial.hex+0x60>
   1116c:	ca ff ff ea 	b	#-216 <serial.hex+0x7c>
   11170:	d8 0e 04 e3 	movw	r0, #20184
   11174:	03 00 40 e3 	movt	r0, #3
   11178:	00 10 a0 e3 	mov	r1, #0
   1117c:	30 00 00 eb 	bl	#192 <panic>
   11180:	14 00 9d e5 	ldr	r0, [sp, #20]
   11184:	04 10 9d e5 	ldr	r1, [sp, #4]
   11188:	00 00 c1 e5 	strb	r0, [r1]
   1118c:	c9 ff ff ea 	b	#-220 <serial.hex+0x98>
   11190:	d8 0e 04 e3 	movw	r0, #20184
   11194:	03 00 40 e3 	movt	r0, #3
   11198:	00 10 a0 e3 	mov	r1, #0
   1119c:	28 00 00 eb 	bl	#160 <panic>
   111a0:	41 00 a0 e3 	mov	r0, #65
   111a4:	10 10 9d e5 	ldr	r1, [sp, #16]
   111a8:	71 00 e0 e6 	uxtab	r0, r0, r1
   111ac:	70 20 ef e6 	uxtb	r2, r0
   111b0:	00 30 a0 e1 	mov	r3, r0
   111b4:	00 00 52 e1 	cmp	r2, r0
   111b8:	00 30 8d e5 	str	r3, [sp]
   111bc:	04 00 00 0a 	beq	#16 <serial.hex+0x1b4>
   111c0:	ff ff ff ea 	b	#-4 <serial.hex+0x1a4>
   111c4:	d8 0e 04 e3 	movw	r0, #20184
   111c8:	03 00 40 e3 	movt	r0, #3
   111cc:	00 10 a0 e3 	mov	r1, #0
   111d0:	1b 00 00 eb 	bl	#108 <panic>
   111d4:	00 00 9d e5 	ldr	r0, [sp]
   111d8:	04 10 9d e5 	ldr	r1, [sp, #4]
   111dc:	00 00 c1 e5 	strb	r0, [r1]
   111e0:	b4 ff ff ea 	b	#-304 <serial.hex+0x98>
   111e4:	d8 0e 04 e3 	movw	r0, #20184
   111e8:	03 00 40 e3 	movt	r0, #3
   111ec:	00 10 a0 e3 	mov	r1, #0
   111f0:	13 00 00 eb 	bl	#76 <panic>
   111f4:	0c 00 9d e5 	ldr	r0, [sp, #12]
   111f8:	0c 00 0b e5 	str	r0, [r11, #-12]
   111fc:	95 ff ff ea 	b	#-428 <serial.hex+0x38>

std.debug.assert:
   11200:	00 48 2d e9 	push	{r11, lr}
   11204:	0d b0 a0 e1 	mov	r11, sp
   11208:	08 d0 4d e2 	sub	sp, sp, #8
   1120c:	00 10 a0 e1 	mov	r1, r0
   11210:	01 00 00 e2 	and	r0, r0, #1
   11214:	01 00 4b e5 	strb	r0, [r11, #-1]
   11218:	01 00 5b e5 	ldrb	r0, [r11, #-1]
   1121c:	00 00 50 e3 	cmp	r0, #0
   11220:	04 00 00 1a 	bne	#16 <std.debug.assert+0x38>
   11224:	ff ff ff ea 	b	#-4 <std.debug.assert+0x28>
   11228:	20 00 05 e3 	movw	r0, #20512
   1122c:	03 00 40 e3 	movt	r0, #3
   11230:	00 10 a0 e3 	mov	r1, #0
   11234:	02 00 00 eb 	bl	#8 <panic>
   11238:	ff ff ff ea 	b	#-4 <std.debug.assert+0x3c>
   1123c:	0b d0 a0 e1 	mov	sp, r11
   11240:	00 88 bd e8 	pop	{r11, pc}

panic:
   11244:	00 48 2d e9 	push	{r11, lr}
   11248:	0d b0 a0 e1 	mov	r11, sp
   1124c:	08 d0 4d e2 	sub	sp, sp, #8
   11250:	04 10 8d e5 	str	r1, [sp, #4]
   11254:	ff ff ff eb 	bl	#-4 <arm_assembly_code.panicf>

arm_assembly_code.panicf:
   11258:	00 48 2d e9 	push	{r11, lr}
   1125c:	0d b0 a0 e1 	mov	r11, sp
   11260:	08 d0 4d e2 	sub	sp, sp, #8
   11264:	70 10 04 e3 	movw	r1, #16496
   11268:	05 10 40 e3 	movt	r1, #5
   1126c:	00 10 d1 e5 	ldrb	r1, [r1]
   11270:	01 00 51 e3 	cmp	r1, #1
   11274:	04 00 8d e5 	str	r0, [sp, #4]
   11278:	01 00 00 1a 	bne	#4 <arm_assembly_code.panicf+0x2c>
   1127c:	ff ff ff ea 	b	#-4 <arm_assembly_code.panicf+0x28>
   11280:	31 04 00 eb 	bl	#4292 <arm_assembly_code.hang>
   11284:	ff ff ff ea 	b	#-4 <arm_assembly_code.panicf+0x30>
   11288:	70 00 04 e3 	movw	r0, #16496
   1128c:	05 00 40 e3 	movt	r0, #5
   11290:	01 10 a0 e3 	mov	r1, #1
   11294:	00 10 c0 e5 	strb	r1, [r0]
   11298:	04 00 9d e5 	ldr	r0, [sp, #4]
   1129c:	31 04 00 eb 	bl	#4292 <serial.log.4>
   112a0:	43 04 00 eb 	bl	#4364 <arm_assembly_code.hang.5>

kernelMain2:
   112a4:	02 12 a0 e3 	mov	r1, #536870912
   112a8:	02 16 81 e3 	orr	r1, r1, #2097152
   112ac:	10 00 a0 e3 	mov	r0, #16
   112b0:	28 00 81 e5 	str	r0, [r1, #40]

loop:
   112b4:	fe ff ff ea 	b	#-8 <loop>
   112b8:	10 00 a0 e3 	mov	r0, #16
   112bc:	1c 00 81 e5 	str	r0, [r1, #28]
   112c0:	03 00 00 eb 	bl	#12 <delay>
   112c4:	10 00 a0 e3 	mov	r0, #16
   112c8:	28 00 81 e5 	str	r0, [r1, #40]
   112cc:	00 00 00 eb 	bl	#0 <delay>
   112d0:	f7 ff ff ea 	b	#-36 <loop>

delay:
   112d4:	01 1b a0 e3 	mov	r1, #1024

delay_x:
   112d8:	01 0b a0 e3 	mov	r0, #1024

delay_0:
   112dc:	00 00 a0 e1 	mov	r0, r0
   112e0:	01 00 50 e2 	subs	r0, r0, #1
   112e4:	fc ff ff 1a 	bne	#-16 <delay_0>
   112e8:	01 10 51 e2 	subs	r1, r1, #1
   112ec:	f9 ff ff 1a 	bne	#-28 <delay_x>
   112f0:	1e ff 2f e1 	bx	lr
   112f4:	ff ff ff ea 	b	#-4 <delay_0+0x1c>
   112f8:	fe ff ff ea 	b	#-8 <delay_0+0x1c>

kernelMain:
   112fc:	30 48 2d e9 	push	{r4, r5, r11, lr}
   11300:	08 b0 8d e2 	add	r11, sp, #8
   11304:	ee de 4d e2 	sub	sp, sp, #3808
   11308:	1d da 4d e2 	sub	sp, sp, #118784
   1130c:	17 00 02 f1 	cps	#23
   11310:	02 03 a0 e3 	mov	r0, #134217728
   11314:	01 06 40 e2 	sub	r0, r0, #1048576
   11318:	00 d0 a0 e1 	mov	sp, r0
   1131c:	1b 00 02 f1 	cps	#27
   11320:	02 03 a0 e3 	mov	r0, #134217728
   11324:	02 06 40 e2 	sub	r0, r0, #2097152
   11328:	00 d0 a0 e1 	mov	sp, r0
   1132c:	1f 00 02 f1 	cps	#31
   11330:	11 0a a0 e3 	mov	r0, #69632
   11334:	3a 00 00 eb 	bl	#232 <arm_assembly_code.setVectorBaseAddressRegister>
   11338:	3f 00 00 eb 	bl	#252 <arm_assembly_code.setBssToZero>
   1133c:	54 00 00 eb 	bl	#336 <serial.init>
   11340:	7c 00 00 eb 	bl	#496 <serial.log>
   11344:	01 00 07 e3 	movw	r0, #28673
   11348:	01 00 40 e3 	movt	r0, #1
   1134c:	1c 10 07 e3 	movw	r1, #28700
   11350:	01 10 40 e3 	movt	r1, #1
   11354:	87 00 00 eb 	bl	#540 <serial.log.2>
   11358:	00 00 04 e3 	movw	r0, #16384
   1135c:	05 00 40 e3 	movt	r0, #5
   11360:	18 00 8d e5 	str	r0, [sp, #24]
   11364:	99 00 00 eb 	bl	#612 <video_core_frame_buffer.FrameBuffer.init>
   11368:	72 01 00 eb 	bl	#1480 <serial.log.3>
   1136c:	aa 0a 0a e3 	movw	r0, #43690
   11370:	aa 0a 4a e3 	movt	r0, #43690
   11374:	0c 00 0b e5 	str	r0, [r11, #-12]
   11378:	10 00 0b e5 	str	r0, [r11, #-16]
   1137c:	14 00 0b e5 	str	r0, [r11, #-20]
   11380:	18 00 0b e5 	str	r0, [r11, #-24]
   11384:	2c 10 07 e3 	movw	r1, #28716
   11388:	01 10 40 e3 	movt	r1, #1
   1138c:	24 00 8d e2 	add	r0, sp, #36
   11390:	aa 2e 0d e3 	movw	r2, #57002
   11394:	01 20 40 e3 	movt	r2, #1
   11398:	14 00 8d e5 	str	r0, [sp, #20]
   1139c:	10 20 8d e5 	str	r2, [sp, #16]
   113a0:	ce 14 00 eb 	bl	#21304 <__aeabi_memcpy8>
   113a4:	14 00 9d e5 	ldr	r0, [sp, #20]
   113a8:	1c 00 8d e5 	str	r0, [sp, #28]
   113ac:	10 10 9d e5 	ldr	r1, [sp, #16]
   113b0:	20 10 8d e5 	str	r1, [sp, #32]
   113b4:	18 20 4b e2 	sub	r2, r11, #24
   113b8:	1c 30 8d e2 	add	r3, sp, #28
   113bc:	02 00 a0 e1 	mov	r0, r2
   113c0:	18 10 9d e5 	ldr	r1, [sp, #24]
   113c4:	0c 20 8d e5 	str	r2, [sp, #12]
   113c8:	03 20 a0 e1 	mov	r2, r3
   113cc:	69 01 00 eb 	bl	#1444 <video_core_frame_buffer.Bitmap.init>
   113d0:	10 10 1b e5 	ldr	r1, [r11, #-16]
   113d4:	0c 20 1b e5 	ldr	r2, [r11, #-12]
   113d8:	0d 00 a0 e1 	mov	r0, sp
   113dc:	00 30 a0 e3 	mov	r3, #0
   113e0:	08 30 80 e5 	str	r3, [r0, #8]
   113e4:	04 30 80 e5 	str	r3, [r0, #4]
   113e8:	00 30 80 e5 	str	r3, [r0]
   113ec:	0c 00 9d e5 	ldr	r0, [sp, #12]
   113f0:	9a 01 00 eb 	bl	#1640 <video_core_frame_buffer.Bitmap.drawRect>
   113f4:	10 10 1b e5 	ldr	r1, [r11, #-16]
   113f8:	0c 20 1b e5 	ldr	r2, [r11, #-12]
   113fc:	4c 00 04 e3 	movw	r0, #16460
   11400:	05 00 40 e3 	movt	r0, #5
   11404:	4f 02 00 eb 	bl	#2364 <ScreenActivity.init>
   11408:	87 02 00 eb 	bl	#2588 <SerialActivity.init>
   1140c:	ff ff ff ea 	b	#-4 <kernelMain+0x114>
   11410:	4c 00 04 e3 	movw	r0, #16460
   11414:	05 00 40 e3 	movt	r0, #5
   11418:	87 02 00 eb 	bl	#2588 <ScreenActivity.update>
   1141c:	31 03 00 eb 	bl	#3268 <SerialActivity.update>
   11420:	fa ff ff ea 	b	#-24 <kernelMain+0x114>

arm_assembly_code.setVectorBaseAddressRegister:
   11424:	04 d0 4d e2 	sub	sp, sp, #4
   11428:	00 00 8d e5 	str	r0, [sp]
   1142c:	00 00 9d e5 	ldr	r0, [sp]
   11430:	10 0f 0c ee 	mcr	p15, #0, r0, c12, c0, #0
   11434:	04 d0 8d e2 	add	sp, sp, #4
   11438:	1e ff 2f e1 	bx	lr

arm_assembly_code.setBssToZero:
   1143c:	00 48 2d e9 	push	{r11, lr}
   11440:	0d b0 a0 e1 	mov	r11, sp
   11444:	08 d0 4d e2 	sub	sp, sp, #8
   11448:	00 00 04 e3 	movw	r0, #16384
   1144c:	05 00 40 e3 	movt	r0, #5
   11450:	80 10 05 e3 	movw	r1, #20608
   11454:	05 10 40 e3 	movt	r1, #5
   11458:	00 20 41 e0 	sub	r2, r1, r0
   1145c:	00 00 51 e1 	cmp	r1, r0
   11460:	04 20 8d e5 	str	r2, [sp, #4]
   11464:	04 00 00 2a 	bhs	#16 <arm_assembly_code.setBssToZero+0x40>
   11468:	ff ff ff ea 	b	#-4 <arm_assembly_code.setBssToZero+0x30>
   1146c:	d8 0e 04 e3 	movw	r0, #20184
   11470:	03 00 40 e3 	movt	r0, #3
   11474:	00 10 a0 e3 	mov	r1, #0
   11478:	71 ff ff eb 	bl	#-572 <panic>
   1147c:	00 00 04 e3 	movw	r0, #16384
   11480:	05 00 40 e3 	movt	r0, #5
   11484:	04 10 9d e5 	ldr	r1, [sp, #4]
   11488:	99 14 00 eb 	bl	#21092 <__aeabi_memclr8>
   1148c:	0b d0 a0 e1 	mov	sp, r11
   11490:	00 88 bd e8 	pop	{r11, pc}

serial.init:
   11494:	00 48 2d e9 	push	{r11, lr}
   11498:	0d b0 a0 e1 	mov	r11, sp
   1149c:	08 d0 4d e2 	sub	sp, sp, #8
   114a0:	04 00 05 e3 	movw	r0, #20484
   114a4:	21 0f 43 e3 	movt	r0, #16161
   114a8:	01 10 a0 e3 	mov	r1, #1
   114ac:	00 10 80 e5 	str	r1, [r0]
   114b0:	44 00 05 e3 	movw	r0, #20548
   114b4:	21 0f 43 e3 	movt	r0, #16161
   114b8:	00 10 a0 e3 	mov	r1, #0
   114bc:	00 10 80 e5 	str	r1, [r0]
   114c0:	60 20 05 e3 	movw	r2, #20576
   114c4:	21 2f 43 e3 	movt	r2, #16161
   114c8:	00 10 82 e5 	str	r1, [r2]
   114cc:	4c 30 05 e3 	movw	r3, #20556
   114d0:	21 3f 43 e3 	movt	r3, #16161
   114d4:	03 c0 a0 e3 	mov	r12, #3
   114d8:	00 c0 83 e5 	str	r12, [r3]
   114dc:	50 30 05 e3 	movw	r3, #20560
   114e0:	21 3f 43 e3 	movt	r3, #16161
   114e4:	00 10 83 e5 	str	r1, [r3]
   114e8:	00 10 80 e5 	str	r1, [r0]
   114ec:	48 00 05 e3 	movw	r0, #20552
   114f0:	21 0f 43 e3 	movt	r0, #16161
   114f4:	c6 10 a0 e3 	mov	r1, #198
   114f8:	00 10 80 e5 	str	r1, [r0]
   114fc:	68 00 05 e3 	movw	r0, #20584
   11500:	21 0f 43 e3 	movt	r0, #16161
   11504:	0e 11 00 e3 	movw	r1, #270
   11508:	00 10 80 e5 	str	r1, [r0]
   1150c:	0e 00 a0 e3 	mov	r0, #14
   11510:	04 20 8d e5 	str	r2, [sp, #4]
   11514:	00 c0 8d e5 	str	r12, [sp]
   11518:	ac 03 00 eb 	bl	#3760 <gpio.useAsAlt5>
   1151c:	0f 00 a0 e3 	mov	r0, #15
   11520:	aa 03 00 eb 	bl	#3752 <gpio.useAsAlt5>
   11524:	00 00 9d e5 	ldr	r0, [sp]
   11528:	04 10 9d e5 	ldr	r1, [sp, #4]
   1152c:	00 00 81 e5 	str	r0, [r1]
   11530:	0b d0 a0 e1 	mov	sp, r11
   11534:	00 88 bd e8 	pop	{r11, pc}

serial.log:
   11538:	00 48 2d e9 	push	{r11, lr}
   1153c:	0d b0 a0 e1 	mov	r11, sp
   11540:	90 d0 4d e2 	sub	sp, sp, #144
   11544:	00 00 a0 e3 	mov	r0, #0
   11548:	04 00 8d e5 	str	r0, [sp, #4]
   1154c:	10 00 8d e2 	add	r0, sp, #16
   11550:	08 00 8d e5 	str	r0, [sp, #8]
   11554:	20 00 a0 e3 	mov	r0, #32
   11558:	0c 00 8d e5 	str	r0, [sp, #12]
   1155c:	3c 14 02 e3 	movw	r1, #9276
   11560:	01 10 40 e3 	movt	r1, #1
   11564:	04 00 8d e2 	add	r0, sp, #4
   11568:	a4 03 00 eb 	bl	#3728 <std.fmt.format>
   1156c:	b2 00 cd e1 	strh	r0, [sp, #2]
   11570:	0b d0 a0 e1 	mov	sp, r11
   11574:	00 88 bd e8 	pop	{r11, pc}

serial.log.2:
   11578:	00 48 2d e9 	push	{r11, lr}
   1157c:	0d b0 a0 e1 	mov	r11, sp
   11580:	98 d0 4d e2 	sub	sp, sp, #152
   11584:	00 20 a0 e3 	mov	r2, #0
   11588:	0c 20 8d e5 	str	r2, [sp, #12]
   1158c:	18 20 8d e2 	add	r2, sp, #24
   11590:	10 20 8d e5 	str	r2, [sp, #16]
   11594:	20 20 a0 e3 	mov	r2, #32
   11598:	14 20 8d e5 	str	r2, [sp, #20]
   1159c:	3c 24 02 e3 	movw	r2, #9276
   115a0:	01 20 40 e3 	movt	r2, #1
   115a4:	0c 30 8d e2 	add	r3, sp, #12
   115a8:	04 00 8d e5 	str	r0, [sp, #4]
   115ac:	03 00 a0 e1 	mov	r0, r3
   115b0:	00 10 8d e5 	str	r1, [sp]
   115b4:	02 10 a0 e1 	mov	r1, r2
   115b8:	04 20 9d e5 	ldr	r2, [sp, #4]
   115bc:	00 30 9d e5 	ldr	r3, [sp]
   115c0:	a3 03 00 eb 	bl	#3724 <std.fmt.format.6>
   115c4:	ba 00 cd e1 	strh	r0, [sp, #10]
   115c8:	0b d0 a0 e1 	mov	sp, r11
   115cc:	00 88 bd e8 	pop	{r11, pc}

video_core_frame_buffer.FrameBuffer.init:
   115d0:	30 48 2d e9 	push	{r4, r5, r11, lr}
   115d4:	08 b0 8d e2 	add	r11, sp, #8
   115d8:	16 de 4d e2 	sub	sp, sp, #352
   115dc:	1c 00 8d e5 	str	r0, [sp, #28]
   115e0:	1c 00 9d e5 	ldr	r0, [sp, #28]
   115e4:	01 1c a0 e3 	mov	r1, #256
   115e8:	00 10 80 e5 	str	r1, [r0]
   115ec:	1c 00 9d e5 	ldr	r0, [sp, #28]
   115f0:	1e 1d a0 e3 	mov	r1, #1920
   115f4:	0c 10 80 e5 	str	r1, [r0, #12]
   115f8:	1c 00 9d e5 	ldr	r0, [sp, #28]
   115fc:	38 24 00 e3 	movw	r2, #1080
   11600:	10 20 80 e5 	str	r2, [r0, #16]
   11604:	1c 00 9d e5 	ldr	r0, [sp, #28]
   11608:	28 10 80 e5 	str	r1, [r0, #40]
   1160c:	1c 00 9d e5 	ldr	r0, [sp, #28]
   11610:	24 20 80 e5 	str	r2, [r0, #36]
   11614:	1c 00 9d e5 	ldr	r0, [sp, #28]
   11618:	00 10 a0 e3 	mov	r1, #0
   1161c:	2c 10 80 e5 	str	r1, [r0, #44]
   11620:	1c 00 9d e5 	ldr	r0, [sp, #28]
   11624:	30 10 80 e5 	str	r1, [r0, #48]
   11628:	1c 00 9d e5 	ldr	r0, [sp, #28]
   1162c:	20 20 a0 e3 	mov	r2, #32
   11630:	08 20 80 e5 	str	r2, [r0, #8]
   11634:	1c 00 9d e5 	ldr	r0, [sp, #28]
   11638:	18 10 80 e5 	str	r1, [r0, #24]
   1163c:	1c 00 9d e5 	ldr	r0, [sp, #28]
   11640:	04 10 80 e5 	str	r1, [r0, #4]
   11644:	28 00 8d e2 	add	r0, sp, #40
   11648:	01 10 00 e3 	movw	r1, #1
   1164c:	04 10 40 e3 	movt	r1, #4
   11650:	08 20 a0 e3 	mov	r2, #8
   11654:	18 00 8d e5 	str	r0, [sp, #24]
   11658:	14 20 8d e5 	str	r2, [sp, #20]
   1165c:	b6 03 00 eb 	bl	#3800 <video_core_properties.tag>
   11660:	18 00 9d e5 	ldr	r0, [sp, #24]
   11664:	0c 00 80 e2 	add	r0, r0, #12
   11668:	1c 10 9d e5 	ldr	r1, [sp, #28]
   1166c:	bd 03 00 eb 	bl	#3828 <video_core_properties.in>
   11670:	18 00 9d e5 	ldr	r0, [sp, #24]
   11674:	18 00 80 e2 	add	r0, r0, #24
   11678:	1c 10 9d e5 	ldr	r1, [sp, #28]
   1167c:	1c 10 81 e2 	add	r1, r1, #28
   11680:	c0 03 00 eb 	bl	#3840 <video_core_properties.out>
   11684:	18 00 9d e5 	ldr	r0, [sp, #24]
   11688:	24 00 80 e2 	add	r0, r0, #36
   1168c:	1c 10 9d e5 	ldr	r1, [sp, #28]
   11690:	20 10 81 e2 	add	r1, r1, #32
   11694:	bb 03 00 eb 	bl	#3820 <video_core_properties.out>
   11698:	18 00 9d e5 	ldr	r0, [sp, #24]
   1169c:	30 00 80 e2 	add	r0, r0, #48
   116a0:	05 10 08 e3 	movw	r1, #32773
   116a4:	04 10 40 e3 	movt	r1, #4
   116a8:	04 20 a0 e3 	mov	r2, #4
   116ac:	10 20 8d e5 	str	r2, [sp, #16]
   116b0:	a1 03 00 eb 	bl	#3716 <video_core_properties.tag>
   116b4:	18 00 9d e5 	ldr	r0, [sp, #24]
   116b8:	3c 00 80 e2 	add	r0, r0, #60
   116bc:	1c 10 9d e5 	ldr	r1, [sp, #28]
   116c0:	08 10 81 e2 	add	r1, r1, #8
   116c4:	b7 03 00 eb 	bl	#3804 <video_core_properties.set>
   116c8:	18 00 9d e5 	ldr	r0, [sp, #24]
   116cc:	48 00 80 e2 	add	r0, r0, #72
   116d0:	03 10 08 e3 	movw	r1, #32771
   116d4:	04 10 40 e3 	movt	r1, #4
   116d8:	14 20 9d e5 	ldr	r2, [sp, #20]
   116dc:	96 03 00 eb 	bl	#3672 <video_core_properties.tag>
   116e0:	18 00 9d e5 	ldr	r0, [sp, #24]
   116e4:	54 00 80 e2 	add	r0, r0, #84
   116e8:	1c 10 9d e5 	ldr	r1, [sp, #28]
   116ec:	0c 10 81 e2 	add	r1, r1, #12
   116f0:	ac 03 00 eb 	bl	#3760 <video_core_properties.set>
   116f4:	18 00 9d e5 	ldr	r0, [sp, #24]
   116f8:	60 00 80 e2 	add	r0, r0, #96
   116fc:	1c 10 9d e5 	ldr	r1, [sp, #28]
   11700:	10 10 81 e2 	add	r1, r1, #16
   11704:	a7 03 00 eb 	bl	#3740 <video_core_properties.set>
   11708:	18 00 9d e5 	ldr	r0, [sp, #24]
   1170c:	6c 00 80 e2 	add	r0, r0, #108
   11710:	06 10 08 e3 	movw	r1, #32774
   11714:	04 10 40 e3 	movt	r1, #4
   11718:	10 20 9d e5 	ldr	r2, [sp, #16]
   1171c:	86 03 00 eb 	bl	#3608 <video_core_properties.tag>
   11720:	18 00 9d e5 	ldr	r0, [sp, #24]
   11724:	78 00 80 e2 	add	r0, r0, #120
   11728:	1c 10 9d e5 	ldr	r1, [sp, #28]
   1172c:	18 10 81 e2 	add	r1, r1, #24
   11730:	9c 03 00 eb 	bl	#3696 <video_core_properties.set>
   11734:	18 00 9d e5 	ldr	r0, [sp, #24]
   11738:	84 00 80 e2 	add	r0, r0, #132
   1173c:	04 10 08 e3 	movw	r1, #32772
   11740:	04 10 40 e3 	movt	r1, #4
   11744:	14 20 9d e5 	ldr	r2, [sp, #20]
   11748:	7b 03 00 eb 	bl	#3564 <video_core_properties.tag>
   1174c:	18 00 9d e5 	ldr	r0, [sp, #24]
   11750:	90 00 80 e2 	add	r0, r0, #144
   11754:	1c 10 9d e5 	ldr	r1, [sp, #28]
   11758:	28 10 81 e2 	add	r1, r1, #40
   1175c:	91 03 00 eb 	bl	#3652 <video_core_properties.set>
   11760:	18 00 9d e5 	ldr	r0, [sp, #24]
   11764:	9c 00 80 e2 	add	r0, r0, #156
   11768:	1c 10 9d e5 	ldr	r1, [sp, #28]
   1176c:	24 10 81 e2 	add	r1, r1, #36
   11770:	8c 03 00 eb 	bl	#3632 <video_core_properties.set>
   11774:	18 00 9d e5 	ldr	r0, [sp, #24]
   11778:	a8 00 80 e2 	add	r0, r0, #168
   1177c:	09 10 08 e3 	movw	r1, #32777
   11780:	04 10 40 e3 	movt	r1, #4
   11784:	14 20 9d e5 	ldr	r2, [sp, #20]
   11788:	6b 03 00 eb 	bl	#3500 <video_core_properties.tag>
   1178c:	18 00 9d e5 	ldr	r0, [sp, #24]
   11790:	b4 00 80 e2 	add	r0, r0, #180
   11794:	1c 10 9d e5 	ldr	r1, [sp, #28]
   11798:	2c 10 81 e2 	add	r1, r1, #44
   1179c:	81 03 00 eb 	bl	#3588 <video_core_properties.set>
   117a0:	18 00 9d e5 	ldr	r0, [sp, #24]
   117a4:	c0 00 80 e2 	add	r0, r0, #192
   117a8:	1c 10 9d e5 	ldr	r1, [sp, #28]
   117ac:	30 10 81 e2 	add	r1, r1, #48
   117b0:	7c 03 00 eb 	bl	#3568 <video_core_properties.set>
   117b4:	18 00 9d e5 	ldr	r0, [sp, #24]
   117b8:	cc 00 80 e2 	add	r0, r0, #204
   117bc:	07 10 08 e3 	movw	r1, #32775
   117c0:	04 10 40 e3 	movt	r1, #4
   117c4:	10 20 9d e5 	ldr	r2, [sp, #16]
   117c8:	5b 03 00 eb 	bl	#3436 <video_core_properties.tag>
   117cc:	18 00 9d e5 	ldr	r0, [sp, #24]
   117d0:	d8 00 80 e2 	add	r0, r0, #216
   117d4:	1c 10 9d e5 	ldr	r1, [sp, #28]
   117d8:	04 10 81 e2 	add	r1, r1, #4
   117dc:	71 03 00 eb 	bl	#3524 <video_core_properties.set>
   117e0:	18 00 9d e5 	ldr	r0, [sp, #24]
   117e4:	e4 00 80 e2 	add	r0, r0, #228
   117e8:	08 10 00 e3 	movw	r1, #8
   117ec:	04 10 40 e3 	movt	r1, #4
   117f0:	10 20 9d e5 	ldr	r2, [sp, #16]
   117f4:	50 03 00 eb 	bl	#3392 <video_core_properties.tag>
   117f8:	18 00 9d e5 	ldr	r0, [sp, #24]
   117fc:	f0 00 80 e2 	add	r0, r0, #240
   11800:	1c 10 9d e5 	ldr	r1, [sp, #28]
   11804:	14 10 81 e2 	add	r1, r1, #20
   11808:	5e 03 00 eb 	bl	#3448 <video_core_properties.out>
   1180c:	18 00 9d e5 	ldr	r0, [sp, #24]
   11810:	fc 00 80 e2 	add	r0, r0, #252
   11814:	0a 10 00 e3 	movw	r1, #10
   11818:	04 10 40 e3 	movt	r1, #4
   1181c:	10 20 a0 e3 	mov	r2, #16
   11820:	45 03 00 eb 	bl	#3348 <video_core_properties.tag>
   11824:	18 00 9d e5 	ldr	r0, [sp, #24]
   11828:	42 0f 80 e2 	add	r0, r0, #264
   1182c:	1c 10 9d e5 	ldr	r1, [sp, #28]
   11830:	34 10 81 e2 	add	r1, r1, #52
   11834:	53 03 00 eb 	bl	#3404 <video_core_properties.out>
   11838:	18 00 9d e5 	ldr	r0, [sp, #24]
   1183c:	45 0f 80 e2 	add	r0, r0, #276
   11840:	1c 10 9d e5 	ldr	r1, [sp, #28]
   11844:	38 10 81 e2 	add	r1, r1, #56
   11848:	4e 03 00 eb 	bl	#3384 <video_core_properties.out>
   1184c:	18 00 9d e5 	ldr	r0, [sp, #24]
   11850:	12 0e 80 e2 	add	r0, r0, #288
   11854:	1c 10 9d e5 	ldr	r1, [sp, #28]
   11858:	3c 10 81 e2 	add	r1, r1, #60
   1185c:	49 03 00 eb 	bl	#3364 <video_core_properties.out>
   11860:	18 00 9d e5 	ldr	r0, [sp, #24]
   11864:	4b 0f 80 e2 	add	r0, r0, #300
   11868:	1c 10 9d e5 	ldr	r1, [sp, #28]
   1186c:	40 10 81 e2 	add	r1, r1, #64
   11870:	44 03 00 eb 	bl	#3344 <video_core_properties.out>
   11874:	18 00 9d e5 	ldr	r0, [sp, #24]
   11878:	20 00 8d e5 	str	r0, [sp, #32]
   1187c:	1a 10 a0 e3 	mov	r1, #26
   11880:	24 10 8d e5 	str	r1, [sp, #36]
   11884:	20 00 8d e2 	add	r0, sp, #32
   11888:	4e 03 00 eb 	bl	#3384 <video_core_properties.callVideoCoreProperties>
   1188c:	1c 00 9d e5 	ldr	r0, [sp, #28]
   11890:	1c 00 90 e5 	ldr	r0, [r0, #28]
   11894:	00 00 50 e3 	cmp	r0, #0
   11898:	01 00 00 1a 	bne	#4 <video_core_frame_buffer.FrameBuffer.init+0x2d4>
   1189c:	ff ff ff ea 	b	#-4 <video_core_frame_buffer.FrameBuffer.init+0x2d0>
   118a0:	64 04 00 eb 	bl	#4496 <arm_assembly_code.panicf.7>
   118a4:	ff ff ff ea 	b	#-4 <video_core_frame_buffer.FrameBuffer.init+0x2d8>
   118a8:	1c 00 9d e5 	ldr	r0, [sp, #28]
   118ac:	1c 10 90 e5 	ldr	r1, [r0, #28]
   118b0:	03 11 c1 e3 	bic	r1, r1, #-1073741824
   118b4:	1c 10 80 e5 	str	r1, [r0, #28]
   118b8:	1c 00 9d e5 	ldr	r0, [sp, #28]
   118bc:	48 10 80 e2 	add	r1, r0, #72
   118c0:	1c 00 90 e5 	ldr	r0, [r0, #28]
   118c4:	00 00 50 e3 	cmp	r0, #0
   118c8:	0c 10 8d e5 	str	r1, [sp, #12]
   118cc:	08 00 8d e5 	str	r0, [sp, #8]
   118d0:	04 00 00 1a 	bne	#16 <video_core_frame_buffer.FrameBuffer.init+0x318>
   118d4:	ff ff ff ea 	b	#-4 <video_core_frame_buffer.FrameBuffer.init+0x308>
   118d8:	00 0f 04 e3 	movw	r0, #20224
   118dc:	03 00 40 e3 	movt	r0, #3
   118e0:	00 10 a0 e3 	mov	r1, #0
   118e4:	56 fe ff eb 	bl	#-1704 <panic>
   118e8:	08 00 9d e5 	ldr	r0, [sp, #8]
   118ec:	0c 10 9d e5 	ldr	r1, [sp, #12]
   118f0:	00 00 81 e5 	str	r0, [r1]
   118f4:	1c 20 9d e5 	ldr	r2, [sp, #28]
   118f8:	44 30 82 e2 	add	r3, r2, #68
   118fc:	1c 20 92 e5 	ldr	r2, [r2, #28]
   11900:	00 00 52 e3 	cmp	r2, #0
   11904:	04 30 8d e5 	str	r3, [sp, #4]
   11908:	00 20 8d e5 	str	r2, [sp]
   1190c:	04 00 00 1a 	bne	#16 <video_core_frame_buffer.FrameBuffer.init+0x354>
   11910:	ff ff ff ea 	b	#-4 <video_core_frame_buffer.FrameBuffer.init+0x344>
   11914:	00 0f 04 e3 	movw	r0, #20224
   11918:	03 00 40 e3 	movt	r0, #3
   1191c:	00 10 a0 e3 	mov	r1, #0
   11920:	47 fe ff eb 	bl	#-1764 <panic>
   11924:	00 00 9d e5 	ldr	r0, [sp]
   11928:	04 10 9d e5 	ldr	r1, [sp, #4]
   1192c:	00 00 81 e5 	str	r0, [r1]
   11930:	08 d0 4b e2 	sub	sp, r11, #8
   11934:	30 88 bd e8 	pop	{r4, r5, r11, pc}

serial.log.3:
   11938:	00 48 2d e9 	push	{r11, lr}
   1193c:	0d b0 a0 e1 	mov	r11, sp
   11940:	90 d0 4d e2 	sub	sp, sp, #144
   11944:	00 00 a0 e3 	mov	r0, #0
   11948:	04 00 8d e5 	str	r0, [sp, #4]
   1194c:	10 00 8d e2 	add	r0, sp, #16
   11950:	08 00 8d e5 	str	r0, [sp, #8]
   11954:	20 00 a0 e3 	mov	r0, #32
   11958:	0c 00 8d e5 	str	r0, [sp, #12]
   1195c:	3c 14 02 e3 	movw	r1, #9276
   11960:	01 10 40 e3 	movt	r1, #1
   11964:	04 00 8d e2 	add	r0, sp, #4
   11968:	42 04 00 eb 	bl	#4360 <std.fmt.format.8>
   1196c:	b2 00 cd e1 	strh	r0, [sp, #2]
   11970:	0b d0 a0 e1 	mov	sp, r11
   11974:	00 88 bd e8 	pop	{r11, pc}

video_core_frame_buffer.Bitmap.init:
   11978:	00 48 2d e9 	push	{r11, lr}
   1197c:	0d b0 a0 e1 	mov	r11, sp
   11980:	20 d0 4d e2 	sub	sp, sp, #32
   11984:	04 00 0b e5 	str	r0, [r11, #-4]
   11988:	08 10 0b e5 	str	r1, [r11, #-8]
   1198c:	04 00 1b e5 	ldr	r0, [r11, #-4]
   11990:	08 10 1b e5 	ldr	r1, [r11, #-8]
   11994:	00 10 80 e5 	str	r1, [r0]
   11998:	04 00 1b e5 	ldr	r0, [r11, #-4]
   1199c:	04 00 80 e2 	add	r0, r0, #4
   119a0:	00 10 92 e5 	ldr	r1, [r2]
   119a4:	0a 30 a0 e3 	mov	r3, #10
   119a8:	0c 00 0b e5 	str	r0, [r11, #-12]
   119ac:	01 00 a0 e1 	mov	r0, r1
   119b0:	10 10 8d e5 	str	r1, [sp, #16]
   119b4:	03 10 a0 e1 	mov	r1, r3
   119b8:	0c 20 8d e5 	str	r2, [sp, #12]
   119bc:	3c 04 00 eb 	bl	#4336 <video_core_frame_buffer.Bitmap.getUnalignedU32>
   119c0:	10 10 9d e5 	ldr	r1, [sp, #16]
   119c4:	00 00 81 e0 	add	r0, r1, r0
   119c8:	01 00 50 e1 	cmp	r0, r1
   119cc:	08 00 8d e5 	str	r0, [sp, #8]
   119d0:	04 00 00 2a 	bhs	#16 <video_core_frame_buffer.Bitmap.init+0x70>
   119d4:	ff ff ff ea 	b	#-4 <video_core_frame_buffer.Bitmap.init+0x60>
   119d8:	d8 0e 04 e3 	movw	r0, #20184
   119dc:	03 00 40 e3 	movt	r0, #3
   119e0:	00 10 a0 e3 	mov	r1, #0
   119e4:	16 fe ff eb 	bl	#-1960 <panic>
   119e8:	08 00 9d e5 	ldr	r0, [sp, #8]
   119ec:	00 00 50 e3 	cmp	r0, #0
   119f0:	04 00 00 1a 	bne	#16 <video_core_frame_buffer.Bitmap.init+0x90>
   119f4:	ff ff ff ea 	b	#-4 <video_core_frame_buffer.Bitmap.init+0x80>
   119f8:	00 0f 04 e3 	movw	r0, #20224
   119fc:	03 00 40 e3 	movt	r0, #3
   11a00:	00 10 a0 e3 	mov	r1, #0
   11a04:	0e fe ff eb 	bl	#-1992 <panic>
   11a08:	08 00 9d e5 	ldr	r0, [sp, #8]
   11a0c:	0c 10 1b e5 	ldr	r1, [r11, #-12]
   11a10:	00 00 81 e5 	str	r0, [r1]
   11a14:	04 20 1b e5 	ldr	r2, [r11, #-4]
   11a18:	0c 30 9d e5 	ldr	r3, [sp, #12]
   11a1c:	00 00 93 e5 	ldr	r0, [r3]
   11a20:	12 10 a0 e3 	mov	r1, #18
   11a24:	04 20 8d e5 	str	r2, [sp, #4]
   11a28:	21 04 00 eb 	bl	#4228 <video_core_frame_buffer.Bitmap.getUnalignedU32>
   11a2c:	04 10 9d e5 	ldr	r1, [sp, #4]
   11a30:	08 00 81 e5 	str	r0, [r1, #8]
   11a34:	04 00 1b e5 	ldr	r0, [r11, #-4]
   11a38:	0c 10 9d e5 	ldr	r1, [sp, #12]
   11a3c:	00 20 91 e5 	ldr	r2, [r1]
   11a40:	16 10 a0 e3 	mov	r1, #22
   11a44:	00 00 8d e5 	str	r0, [sp]
   11a48:	02 00 a0 e1 	mov	r0, r2
   11a4c:	18 04 00 eb 	bl	#4192 <video_core_frame_buffer.Bitmap.getUnalignedU32>
   11a50:	00 10 9d e5 	ldr	r1, [sp]
   11a54:	0c 00 81 e5 	str	r0, [r1, #12]
   11a58:	0b d0 a0 e1 	mov	sp, r11
   11a5c:	00 88 bd e8 	pop	{r11, pc}

video_core_frame_buffer.Bitmap.drawRect:
   11a60:	10 4c 2d e9 	push	{r4, r10, r11, lr}
   11a64:	08 b0 8d e2 	add	r11, sp, #8
   11a68:	58 d0 4d e2 	sub	sp, sp, #88
   11a6c:	10 c0 9b e5 	ldr	r12, [r11, #16]
   11a70:	0c e0 9b e5 	ldr	lr, [r11, #12]
   11a74:	08 40 9b e5 	ldr	r4, [r11, #8]
   11a78:	18 00 0b e5 	str	r0, [r11, #-24]
   11a7c:	1c 10 0b e5 	str	r1, [r11, #-28]
   11a80:	20 20 0b e5 	str	r2, [r11, #-32]
   11a84:	24 30 0b e5 	str	r3, [r11, #-36]
   11a88:	00 00 a0 e3 	mov	r0, #0
   11a8c:	0c 00 0b e5 	str	r0, [r11, #-12]
   11a90:	ff ff ff ea 	b	#-4 <video_core_frame_buffer.Bitmap.drawRect+0x34>
   11a94:	0c 00 1b e5 	ldr	r0, [r11, #-12]
   11a98:	20 10 1b e5 	ldr	r1, [r11, #-32]
   11a9c:	01 00 50 e1 	cmp	r0, r1
   11aa0:	17 00 00 2a 	bhs	#92 <video_core_frame_buffer.Bitmap.drawRect+0xa4>
   11aa4:	ff ff ff ea 	b	#-4 <video_core_frame_buffer.Bitmap.drawRect+0x48>
   11aa8:	00 00 a0 e3 	mov	r0, #0
   11aac:	10 00 0b e5 	str	r0, [r11, #-16]
   11ab0:	ff ff ff ea 	b	#-4 <video_core_frame_buffer.Bitmap.drawRect+0x54>
   11ab4:	10 00 1b e5 	ldr	r0, [r11, #-16]
   11ab8:	1c 10 1b e5 	ldr	r1, [r11, #-28]
   11abc:	01 00 50 e1 	cmp	r0, r1
   11ac0:	09 00 00 2a 	bhs	#36 <video_core_frame_buffer.Bitmap.drawRect+0x8c>
   11ac4:	ff ff ff ea 	b	#-4 <video_core_frame_buffer.Bitmap.drawRect+0x68>
   11ac8:	18 00 1b e5 	ldr	r0, [r11, #-24]
   11acc:	04 10 90 e5 	ldr	r1, [r0, #4]
   11ad0:	0c 00 90 e5 	ldr	r0, [r0, #12]
   11ad4:	01 20 40 e2 	sub	r2, r0, #1
   11ad8:	01 00 50 e3 	cmp	r0, #1
   11adc:	28 10 0b e5 	str	r1, [r11, #-40]
   11ae0:	2c 20 0b e5 	str	r2, [r11, #-44]
   11ae4:	08 00 00 3a 	blo	#32 <video_core_frame_buffer.Bitmap.drawRect+0xac>
   11ae8:	0b 00 00 ea 	b	#44 <video_core_frame_buffer.Bitmap.drawRect+0xbc>
   11aec:	0c 00 1b e5 	ldr	r0, [r11, #-12]
   11af0:	01 10 80 e2 	add	r1, r0, #1
   11af4:	00 00 51 e1 	cmp	r1, r0
   11af8:	30 10 8d e5 	str	r1, [sp, #48]
   11afc:	8a 00 00 3a 	blo	#552 <video_core_frame_buffer.Bitmap.drawRect+0x2cc>
   11b00:	8d 00 00 ea 	b	#564 <video_core_frame_buffer.Bitmap.drawRect+0x2dc>
   11b04:	08 d0 4b e2 	sub	sp, r11, #8
   11b08:	10 8c bd e8 	pop	{r4, r10, r11, pc}
   11b0c:	d8 0e 04 e3 	movw	r0, #20184
   11b10:	03 00 40 e3 	movt	r0, #3
   11b14:	00 10 a0 e3 	mov	r1, #0
   11b18:	c9 fd ff eb 	bl	#-2268 <panic>
   11b1c:	0c 00 1b e5 	ldr	r0, [r11, #-12]
   11b20:	2c 10 1b e5 	ldr	r1, [r11, #-44]
   11b24:	00 20 41 e0 	sub	r2, r1, r0
   11b28:	00 00 51 e1 	cmp	r1, r0
   11b2c:	2c 20 8d e5 	str	r2, [sp, #44]
   11b30:	04 00 00 2a 	bhs	#16 <video_core_frame_buffer.Bitmap.drawRect+0xe8>
   11b34:	ff ff ff ea 	b	#-4 <video_core_frame_buffer.Bitmap.drawRect+0xd8>
   11b38:	d8 0e 04 e3 	movw	r0, #20184
   11b3c:	03 00 40 e3 	movt	r0, #3
   11b40:	00 10 a0 e3 	mov	r1, #0
   11b44:	be fd ff eb 	bl	#-2312 <panic>
   11b48:	08 00 9b e5 	ldr	r0, [r11, #8]
   11b4c:	2c 10 9d e5 	ldr	r1, [sp, #44]
   11b50:	00 00 81 e0 	add	r0, r1, r0
   11b54:	01 00 50 e1 	cmp	r0, r1
   11b58:	28 00 8d e5 	str	r0, [sp, #40]
   11b5c:	04 00 00 2a 	bhs	#16 <video_core_frame_buffer.Bitmap.drawRect+0x114>
   11b60:	ff ff ff ea 	b	#-4 <video_core_frame_buffer.Bitmap.drawRect+0x104>
   11b64:	d8 0e 04 e3 	movw	r0, #20184
   11b68:	03 00 40 e3 	movt	r0, #3
   11b6c:	00 10 a0 e3 	mov	r1, #0
   11b70:	b3 fd ff eb 	bl	#-2356 <panic>
   11b74:	18 00 1b e5 	ldr	r0, [r11, #-24]
   11b78:	08 00 90 e5 	ldr	r0, [r0, #8]
   11b7c:	28 10 9d e5 	ldr	r1, [sp, #40]
   11b80:	91 00 82 e0 	umull	r0, r2, r1, r0
   11b84:	00 00 52 e3 	cmp	r2, #0
   11b88:	24 00 8d e5 	str	r0, [sp, #36]
   11b8c:	04 00 00 0a 	beq	#16 <video_core_frame_buffer.Bitmap.drawRect+0x144>
   11b90:	ff ff ff ea 	b	#-4 <video_core_frame_buffer.Bitmap.drawRect+0x134>
   11b94:	d8 0e 04 e3 	movw	r0, #20184
   11b98:	03 00 40 e3 	movt	r0, #3
   11b9c:	00 10 a0 e3 	mov	r1, #0
   11ba0:	a7 fd ff eb 	bl	#-2404 <panic>
   11ba4:	10 00 1b e5 	ldr	r0, [r11, #-16]
   11ba8:	24 10 9d e5 	ldr	r1, [sp, #36]
   11bac:	00 00 81 e0 	add	r0, r1, r0
   11bb0:	01 00 50 e1 	cmp	r0, r1
   11bb4:	20 00 8d e5 	str	r0, [sp, #32]
   11bb8:	04 00 00 2a 	bhs	#16 <video_core_frame_buffer.Bitmap.drawRect+0x170>
   11bbc:	ff ff ff ea 	b	#-4 <video_core_frame_buffer.Bitmap.drawRect+0x160>
   11bc0:	d8 0e 04 e3 	movw	r0, #20184
   11bc4:	03 00 40 e3 	movt	r0, #3
   11bc8:	00 10 a0 e3 	mov	r1, #0
   11bcc:	9c fd ff eb 	bl	#-2448 <panic>
   11bd0:	24 00 1b e5 	ldr	r0, [r11, #-36]
   11bd4:	20 10 9d e5 	ldr	r1, [sp, #32]
   11bd8:	00 00 81 e0 	add	r0, r1, r0
   11bdc:	01 00 50 e1 	cmp	r0, r1
   11be0:	1c 00 8d e5 	str	r0, [sp, #28]
   11be4:	04 00 00 2a 	bhs	#16 <video_core_frame_buffer.Bitmap.drawRect+0x19c>
   11be8:	ff ff ff ea 	b	#-4 <video_core_frame_buffer.Bitmap.drawRect+0x18c>
   11bec:	d8 0e 04 e3 	movw	r0, #20184
   11bf0:	03 00 40 e3 	movt	r0, #3
   11bf4:	00 10 a0 e3 	mov	r1, #0
   11bf8:	91 fd ff eb 	bl	#-2492 <panic>
   11bfc:	1c 00 9d e5 	ldr	r0, [sp, #28]
   11c00:	00 11 a0 e1 	lsl	r1, r0, #2
   11c04:	20 2f a0 e1 	lsr	r2, r0, #30
   11c08:	00 00 52 e3 	cmp	r2, #0
   11c0c:	18 10 8d e5 	str	r1, [sp, #24]
   11c10:	04 00 00 0a 	beq	#16 <video_core_frame_buffer.Bitmap.drawRect+0x1c8>
   11c14:	ff ff ff ea 	b	#-4 <video_core_frame_buffer.Bitmap.drawRect+0x1b8>
   11c18:	d8 0e 04 e3 	movw	r0, #20184
   11c1c:	03 00 40 e3 	movt	r0, #3
   11c20:	00 10 a0 e3 	mov	r1, #0
   11c24:	86 fd ff eb 	bl	#-2536 <panic>
   11c28:	28 00 1b e5 	ldr	r0, [r11, #-40]
   11c2c:	18 10 9d e5 	ldr	r1, [sp, #24]
   11c30:	9f 03 00 eb 	bl	#3708 <video_core_frame_buffer.Bitmap.getUnalignedU32>
   11c34:	14 00 0b e5 	str	r0, [r11, #-20]
   11c38:	14 00 1b e5 	ldr	r0, [r11, #-20]
   11c3c:	ff 14 c0 e3 	bic	r1, r0, #-16777216
   11c40:	ff 04 00 e2 	and	r0, r0, #-16777216
   11c44:	ff 24 60 e2 	rsb	r2, r0, #-16777216
   11c48:	ff 34 a0 e3 	mov	r3, #-16777216
   11c4c:	00 00 53 e1 	cmp	r3, r0
   11c50:	14 10 8d e5 	str	r1, [sp, #20]
   11c54:	10 20 8d e5 	str	r2, [sp, #16]
   11c58:	04 00 00 2a 	bhs	#16 <video_core_frame_buffer.Bitmap.drawRect+0x210>
   11c5c:	ff ff ff ea 	b	#-4 <video_core_frame_buffer.Bitmap.drawRect+0x200>
   11c60:	d8 0e 04 e3 	movw	r0, #20184
   11c64:	03 00 40 e3 	movt	r0, #3
   11c68:	00 10 a0 e3 	mov	r1, #0
   11c6c:	74 fd ff eb 	bl	#-2608 <panic>
   11c70:	14 00 9d e5 	ldr	r0, [sp, #20]
   11c74:	10 10 9d e5 	ldr	r1, [sp, #16]
   11c78:	01 20 80 e1 	orr	r2, r0, r1
   11c7c:	14 20 0b e5 	str	r2, [r11, #-20]
   11c80:	18 20 1b e5 	ldr	r2, [r11, #-24]
   11c84:	00 00 92 e5 	ldr	r0, [r2]
   11c88:	10 20 1b e5 	ldr	r2, [r11, #-16]
   11c8c:	0c 30 9b e5 	ldr	r3, [r11, #12]
   11c90:	03 30 82 e0 	add	r3, r2, r3
   11c94:	02 00 53 e1 	cmp	r3, r2
   11c98:	0c 00 8d e5 	str	r0, [sp, #12]
   11c9c:	08 30 8d e5 	str	r3, [sp, #8]
   11ca0:	04 00 00 2a 	bhs	#16 <video_core_frame_buffer.Bitmap.drawRect+0x258>
   11ca4:	ff ff ff ea 	b	#-4 <video_core_frame_buffer.Bitmap.drawRect+0x248>
   11ca8:	d8 0e 04 e3 	movw	r0, #20184
   11cac:	03 00 40 e3 	movt	r0, #3
   11cb0:	00 10 a0 e3 	mov	r1, #0
   11cb4:	62 fd ff eb 	bl	#-2680 <panic>
   11cb8:	0c 00 1b e5 	ldr	r0, [r11, #-12]
   11cbc:	10 10 9b e5 	ldr	r1, [r11, #16]
   11cc0:	01 10 80 e0 	add	r1, r0, r1
   11cc4:	00 00 51 e1 	cmp	r1, r0
   11cc8:	04 10 8d e5 	str	r1, [sp, #4]
   11ccc:	04 00 00 2a 	bhs	#16 <video_core_frame_buffer.Bitmap.drawRect+0x284>
   11cd0:	ff ff ff ea 	b	#-4 <video_core_frame_buffer.Bitmap.drawRect+0x274>
   11cd4:	d8 0e 04 e3 	movw	r0, #20184
   11cd8:	03 00 40 e3 	movt	r0, #3
   11cdc:	00 10 a0 e3 	mov	r1, #0
   11ce0:	57 fd ff eb 	bl	#-2724 <panic>
   11ce4:	14 30 1b e5 	ldr	r3, [r11, #-20]
   11ce8:	0c 00 9d e5 	ldr	r0, [sp, #12]
   11cec:	08 10 9d e5 	ldr	r1, [sp, #8]
   11cf0:	04 20 9d e5 	ldr	r2, [sp, #4]
   11cf4:	b3 03 00 eb 	bl	#3788 <video_core_frame_buffer.FrameBuffer.drawPixel32>
   11cf8:	10 00 1b e5 	ldr	r0, [r11, #-16]
   11cfc:	01 10 80 e2 	add	r1, r0, #1
   11d00:	00 00 51 e1 	cmp	r1, r0
   11d04:	00 10 8d e5 	str	r1, [sp]
   11d08:	04 00 00 2a 	bhs	#16 <video_core_frame_buffer.Bitmap.drawRect+0x2c0>
   11d0c:	ff ff ff ea 	b	#-4 <video_core_frame_buffer.Bitmap.drawRect+0x2b0>
   11d10:	d8 0e 04 e3 	movw	r0, #20184
   11d14:	03 00 40 e3 	movt	r0, #3
   11d18:	00 10 a0 e3 	mov	r1, #0
   11d1c:	48 fd ff eb 	bl	#-2784 <panic>
   11d20:	00 00 9d e5 	ldr	r0, [sp]
   11d24:	10 00 0b e5 	str	r0, [r11, #-16]
   11d28:	61 ff ff ea 	b	#-636 <video_core_frame_buffer.Bitmap.drawRect+0x54>
   11d2c:	d8 0e 04 e3 	movw	r0, #20184
   11d30:	03 00 40 e3 	movt	r0, #3
   11d34:	00 10 a0 e3 	mov	r1, #0
   11d38:	41 fd ff eb 	bl	#-2812 <panic>
   11d3c:	30 00 9d e5 	ldr	r0, [sp, #48]
   11d40:	0c 00 0b e5 	str	r0, [r11, #-12]
   11d44:	52 ff ff ea 	b	#-696 <video_core_frame_buffer.Bitmap.drawRect+0x34>

ScreenActivity.init:
   11d48:	00 48 2d e9 	push	{r11, lr}
   11d4c:	0d b0 a0 e1 	mov	r11, sp
   11d50:	20 d0 4d e2 	sub	sp, sp, #32
   11d54:	04 00 0b e5 	str	r0, [r11, #-4]
   11d58:	08 10 0b e5 	str	r1, [r11, #-8]
   11d5c:	0c 20 0b e5 	str	r2, [r11, #-12]
   11d60:	04 00 1b e5 	ldr	r0, [r11, #-4]
   11d64:	08 10 1b e5 	ldr	r1, [r11, #-8]
   11d68:	00 10 80 e5 	str	r1, [r0]
   11d6c:	04 00 1b e5 	ldr	r0, [r11, #-4]
   11d70:	0c 10 1b e5 	ldr	r1, [r11, #-12]
   11d74:	04 10 80 e5 	str	r1, [r0, #4]
   11d78:	04 00 1b e5 	ldr	r0, [r11, #-4]
   11d7c:	50 17 05 e3 	movw	r1, #22352
   11d80:	03 10 40 e3 	movt	r1, #3
   11d84:	00 10 91 e5 	ldr	r1, [r1]
   11d88:	08 10 80 e5 	str	r1, [r0, #8]
   11d8c:	04 00 1b e5 	ldr	r0, [r11, #-4]
   11d90:	08 10 80 e2 	add	r1, r0, #8
   11d94:	00 20 04 e3 	movw	r2, #16384
   11d98:	05 20 40 e3 	movt	r2, #5
   11d9c:	10 00 8d e5 	str	r0, [sp, #16]
   11da0:	02 00 a0 e1 	mov	r0, r2
   11da4:	d3 03 00 eb 	bl	#3916 <video_core_frame_buffer.FrameBuffer.color32>
   11da8:	10 10 9d e5 	ldr	r1, [sp, #16]
   11dac:	0c 00 81 e5 	str	r0, [r1, #12]
   11db0:	04 00 1b e5 	ldr	r0, [r11, #-4]
   11db4:	10 00 80 e2 	add	r0, r0, #16
   11db8:	0c 20 1b e5 	ldr	r2, [r11, #-12]
   11dbc:	0a 30 82 e2 	add	r3, r2, #10
   11dc0:	02 00 53 e1 	cmp	r3, r2
   11dc4:	0c 00 8d e5 	str	r0, [sp, #12]
   11dc8:	08 30 8d e5 	str	r3, [sp, #8]
   11dcc:	04 00 00 2a 	bhs	#16 <ScreenActivity.init+0x9c>
   11dd0:	ff ff ff ea 	b	#-4 <ScreenActivity.init+0x8c>
   11dd4:	d8 0e 04 e3 	movw	r0, #20184
   11dd8:	03 00 40 e3 	movt	r0, #3
   11ddc:	00 10 a0 e3 	mov	r1, #0
   11de0:	17 fd ff eb 	bl	#-2980 <panic>
   11de4:	08 00 9d e5 	ldr	r0, [sp, #8]
   11de8:	0c 10 9d e5 	ldr	r1, [sp, #12]
   11dec:	00 00 81 e5 	str	r0, [r1]
   11df0:	04 20 1b e5 	ldr	r2, [r11, #-4]
   11df4:	00 30 a0 e3 	mov	r3, #0
   11df8:	14 30 82 e5 	str	r3, [r2, #20]
   11dfc:	04 20 1b e5 	ldr	r2, [r11, #-4]
   11e00:	10 c0 92 e5 	ldr	r12, [r2, #16]
   11e04:	18 c0 82 e5 	str	r12, [r2, #24]
   11e08:	04 20 1b e5 	ldr	r2, [r11, #-4]
   11e0c:	1c 30 82 e5 	str	r3, [r2, #28]
   11e10:	04 20 1b e5 	ldr	r2, [r11, #-4]
   11e14:	04 20 8d e5 	str	r2, [sp, #4]
   11e18:	d1 03 00 eb 	bl	#3908 <arm_assembly_code.seconds>
   11e1c:	04 10 9d e5 	ldr	r1, [sp, #4]
   11e20:	20 00 81 e5 	str	r0, [r1, #32]
   11e24:	0b d0 a0 e1 	mov	sp, r11
   11e28:	00 88 bd e8 	pop	{r11, pc}

SerialActivity.init:
   11e2c:	00 48 2d e9 	push	{r11, lr}
   11e30:	0d b0 a0 e1 	mov	r11, sp
   11e34:	e0 03 00 eb 	bl	#3968 <serial.log.9>
   11e38:	00 88 bd e8 	pop	{r11, pc}

ScreenActivity.update:
   11e3c:	00 48 2d e9 	push	{r11, lr}
   11e40:	0d b0 a0 e1 	mov	r11, sp
   11e44:	38 d0 4d e2 	sub	sp, sp, #56
   11e48:	08 00 0b e5 	str	r0, [r11, #-8]
   11e4c:	c4 03 00 eb 	bl	#3856 <arm_assembly_code.seconds>
   11e50:	04 00 0b e5 	str	r0, [r11, #-4]
   11e54:	04 00 1b e5 	ldr	r0, [r11, #-4]
   11e58:	08 10 1b e5 	ldr	r1, [r11, #-8]
   11e5c:	20 10 91 e5 	ldr	r1, [r1, #32]
   11e60:	01 20 81 e2 	add	r2, r1, #1
   11e64:	01 00 52 e1 	cmp	r2, r1
   11e68:	0c 00 0b e5 	str	r0, [r11, #-12]
   11e6c:	10 20 0b e5 	str	r2, [r11, #-16]
   11e70:	64 00 00 3a 	blo	#400 <ScreenActivity.update+0x1cc>
   11e74:	67 00 00 ea 	b	#412 <ScreenActivity.update+0x1dc>
   11e78:	08 00 1b e5 	ldr	r0, [r11, #-8]
   11e7c:	04 10 1b e5 	ldr	r1, [r11, #-4]
   11e80:	20 10 80 e5 	str	r1, [r0, #32]
   11e84:	10 0f 04 e3 	movw	r0, #20240
   11e88:	03 00 40 e3 	movt	r0, #3
   11e8c:	da 03 00 eb 	bl	#3944 <serial.writeText>
   11e90:	08 00 1b e5 	ldr	r0, [r11, #-8]
   11e94:	20 00 90 e5 	ldr	r0, [r0, #32]
   11e98:	fd 03 00 eb 	bl	#4084 <serial.decimal>
   11e9c:	24 0f 04 e3 	movw	r0, #20260
   11ea0:	03 00 40 e3 	movt	r0, #3
   11ea4:	d4 03 00 eb 	bl	#3920 <serial.writeText>
   11ea8:	08 00 1b e5 	ldr	r0, [r11, #-8]
   11eac:	1c 00 90 e5 	ldr	r0, [r0, #28]
   11eb0:	f7 03 00 eb 	bl	#4060 <serial.decimal>
   11eb4:	34 0f 04 e3 	movw	r0, #20276
   11eb8:	03 00 40 e3 	movt	r0, #3
   11ebc:	ce 03 00 eb 	bl	#3896 <serial.writeText>
   11ec0:	40 0f 04 e3 	movw	r0, #20288
   11ec4:	03 00 40 e3 	movt	r0, #3
   11ec8:	cb 03 00 eb 	bl	#3884 <serial.writeText>
   11ecc:	00 00 00 ea 	b	#0 <ScreenActivity.update+0x98>
   11ed0:	ff ff ff ea 	b	#-4 <ScreenActivity.update+0x98>
   11ed4:	08 00 1b e5 	ldr	r0, [r11, #-8]
   11ed8:	0c 30 90 e5 	ldr	r3, [r0, #12]
   11edc:	14 10 90 e5 	ldr	r1, [r0, #20]
   11ee0:	18 20 90 e5 	ldr	r2, [r0, #24]
   11ee4:	00 00 04 e3 	movw	r0, #16384
   11ee8:	05 00 40 e3 	movt	r0, #5
   11eec:	35 03 00 eb 	bl	#3284 <video_core_frame_buffer.FrameBuffer.drawPixel32>
   11ef0:	08 00 1b e5 	ldr	r0, [r11, #-8]
   11ef4:	14 10 b0 e5 	ldr	r1, [r0, #20]!
   11ef8:	01 20 81 e2 	add	r2, r1, #1
   11efc:	01 00 52 e1 	cmp	r2, r1
   11f00:	14 00 0b e5 	str	r0, [r11, #-20]
   11f04:	18 20 0b e5 	str	r2, [r11, #-24]
   11f08:	47 00 00 3a 	blo	#284 <ScreenActivity.update+0x1f0>
   11f0c:	4a 00 00 ea 	b	#296 <ScreenActivity.update+0x200>
   11f10:	08 00 1b e5 	ldr	r0, [r11, #-8]
   11f14:	00 10 a0 e3 	mov	r1, #0
   11f18:	14 10 80 e5 	str	r1, [r0, #20]
   11f1c:	08 00 1b e5 	ldr	r0, [r11, #-8]
   11f20:	18 10 b0 e5 	ldr	r1, [r0, #24]!
   11f24:	01 20 81 e2 	add	r2, r1, #1
   11f28:	01 00 52 e1 	cmp	r2, r1
   11f2c:	1c 00 8d e5 	str	r0, [sp, #28]
   11f30:	18 20 8d e5 	str	r2, [sp, #24]
   11f34:	49 00 00 3a 	blo	#292 <ScreenActivity.update+0x224>
   11f38:	4c 00 00 ea 	b	#304 <ScreenActivity.update+0x234>
   11f3c:	08 00 1b e5 	ldr	r0, [r11, #-8]
   11f40:	10 10 90 e5 	ldr	r1, [r0, #16]
   11f44:	18 10 80 e5 	str	r1, [r0, #24]
   11f48:	08 00 1b e5 	ldr	r0, [r11, #-8]
   11f4c:	1c 10 b0 e5 	ldr	r1, [r0, #28]!
   11f50:	01 20 81 e2 	add	r2, r1, #1
   11f54:	01 00 52 e1 	cmp	r2, r1
   11f58:	14 00 8d e5 	str	r0, [sp, #20]
   11f5c:	10 20 8d e5 	str	r2, [sp, #16]
   11f60:	58 00 00 3a 	blo	#352 <ScreenActivity.update+0x28c>
   11f64:	5b 00 00 ea 	b	#364 <ScreenActivity.update+0x29c>
   11f68:	ff ff ff ea 	b	#-4 <ScreenActivity.update+0x130>
   11f6c:	08 00 1b e5 	ldr	r0, [r11, #-8]
   11f70:	08 10 d0 e5 	ldrb	r1, [r0, #8]
   11f74:	0a 10 81 e2 	add	r1, r1, #10
   11f78:	08 10 c0 e5 	strb	r1, [r0, #8]
   11f7c:	08 00 1b e5 	ldr	r0, [r11, #-8]
   11f80:	08 00 d0 e5 	ldrb	r0, [r0, #8]
   11f84:	09 00 50 e3 	cmp	r0, #9
   11f88:	10 00 00 8a 	bhi	#64 <ScreenActivity.update+0x194>
   11f8c:	ff ff ff ea 	b	#-4 <ScreenActivity.update+0x154>
   11f90:	08 00 1b e5 	ldr	r0, [r11, #-8]
   11f94:	09 10 d0 e5 	ldrb	r1, [r0, #9]
   11f98:	0a 10 81 e2 	add	r1, r1, #10
   11f9c:	09 10 c0 e5 	strb	r1, [r0, #9]
   11fa0:	08 00 1b e5 	ldr	r0, [r11, #-8]
   11fa4:	09 00 d0 e5 	ldrb	r0, [r0, #9]
   11fa8:	09 00 50 e3 	cmp	r0, #9
   11fac:	05 00 00 8a 	bhi	#20 <ScreenActivity.update+0x18c>
   11fb0:	ff ff ff ea 	b	#-4 <ScreenActivity.update+0x178>
   11fb4:	08 00 1b e5 	ldr	r0, [r11, #-8]
   11fb8:	0a 10 d0 e5 	ldrb	r1, [r0, #10]
   11fbc:	0a 10 81 e2 	add	r1, r1, #10
   11fc0:	0a 10 c0 e5 	strb	r1, [r0, #10]
   11fc4:	00 00 00 ea 	b	#0 <ScreenActivity.update+0x190>
   11fc8:	ff ff ff ea 	b	#-4 <ScreenActivity.update+0x190>
   11fcc:	00 00 00 ea 	b	#0 <ScreenActivity.update+0x198>
   11fd0:	ff ff ff ea 	b	#-4 <ScreenActivity.update+0x198>
   11fd4:	08 00 1b e5 	ldr	r0, [r11, #-8]
   11fd8:	08 10 80 e2 	add	r1, r0, #8
   11fdc:	00 20 04 e3 	movw	r2, #16384
   11fe0:	05 20 40 e3 	movt	r2, #5
   11fe4:	0c 00 8d e5 	str	r0, [sp, #12]
   11fe8:	02 00 a0 e1 	mov	r0, r2
   11fec:	41 03 00 eb 	bl	#3332 <video_core_frame_buffer.FrameBuffer.color32>
   11ff0:	0c 10 9d e5 	ldr	r1, [sp, #12]
   11ff4:	0c 00 81 e5 	str	r0, [r1, #12]
   11ff8:	00 00 00 ea 	b	#0 <ScreenActivity.update+0x1c4>
   11ffc:	ff ff ff ea 	b	#-4 <ScreenActivity.update+0x1c4>
   12000:	0b d0 a0 e1 	mov	sp, r11
   12004:	00 88 bd e8 	pop	{r11, pc}
   12008:	d8 0e 04 e3 	movw	r0, #20184
   1200c:	03 00 40 e3 	movt	r0, #3
   12010:	00 10 a0 e3 	mov	r1, #0
   12014:	8a fc ff eb 	bl	#-3544 <panic>
   12018:	0c 00 1b e5 	ldr	r0, [r11, #-12]
   1201c:	10 10 1b e5 	ldr	r1, [r11, #-16]
   12020:	01 00 50 e1 	cmp	r0, r1
   12024:	93 ff ff 2a 	bhs	#-436 <ScreenActivity.update+0x3c>
   12028:	a8 ff ff ea 	b	#-352 <ScreenActivity.update+0x94>
   1202c:	d8 0e 04 e3 	movw	r0, #20184
   12030:	03 00 40 e3 	movt	r0, #3
   12034:	00 10 a0 e3 	mov	r1, #0
   12038:	81 fc ff eb 	bl	#-3580 <panic>
   1203c:	18 00 1b e5 	ldr	r0, [r11, #-24]
   12040:	14 10 1b e5 	ldr	r1, [r11, #-20]
   12044:	00 00 81 e5 	str	r0, [r1]
   12048:	08 20 1b e5 	ldr	r2, [r11, #-8]
   1204c:	00 30 92 e5 	ldr	r3, [r2]
   12050:	14 20 92 e5 	ldr	r2, [r2, #20]
   12054:	03 00 52 e1 	cmp	r2, r3
   12058:	ac ff ff 0a 	beq	#-336 <ScreenActivity.update+0xd4>
   1205c:	e6 ff ff ea 	b	#-104 <ScreenActivity.update+0x1c0>
   12060:	d8 0e 04 e3 	movw	r0, #20184
   12064:	03 00 40 e3 	movt	r0, #3
   12068:	00 10 a0 e3 	mov	r1, #0
   1206c:	74 fc ff eb 	bl	#-3632 <panic>
   12070:	18 00 9d e5 	ldr	r0, [sp, #24]
   12074:	1c 10 9d e5 	ldr	r1, [sp, #28]
   12078:	00 00 81 e5 	str	r0, [r1]
   1207c:	08 20 1b e5 	ldr	r2, [r11, #-8]
   12080:	04 30 92 e5 	ldr	r3, [r2, #4]
   12084:	10 c0 92 e5 	ldr	r12, [r2, #16]
   12088:	18 20 92 e5 	ldr	r2, [r2, #24]
   1208c:	03 30 8c e0 	add	r3, r12, r3
   12090:	0c 00 53 e1 	cmp	r3, r12
   12094:	08 20 8d e5 	str	r2, [sp, #8]
   12098:	04 30 8d e5 	str	r3, [sp, #4]
   1209c:	04 00 00 2a 	bhs	#16 <ScreenActivity.update+0x278>
   120a0:	ff ff ff ea 	b	#-4 <ScreenActivity.update+0x268>
   120a4:	d8 0e 04 e3 	movw	r0, #20184
   120a8:	03 00 40 e3 	movt	r0, #3
   120ac:	00 10 a0 e3 	mov	r1, #0
   120b0:	63 fc ff eb 	bl	#-3700 <panic>
   120b4:	08 00 9d e5 	ldr	r0, [sp, #8]
   120b8:	04 10 9d e5 	ldr	r1, [sp, #4]
   120bc:	01 00 50 e1 	cmp	r0, r1
   120c0:	9d ff ff 0a 	beq	#-396 <ScreenActivity.update+0x100>
   120c4:	a7 ff ff ea 	b	#-356 <ScreenActivity.update+0x12c>
   120c8:	d8 0e 04 e3 	movw	r0, #20184
   120cc:	03 00 40 e3 	movt	r0, #3
   120d0:	00 10 a0 e3 	mov	r1, #0
   120d4:	5a fc ff eb 	bl	#-3736 <panic>
   120d8:	10 00 9d e5 	ldr	r0, [sp, #16]
   120dc:	14 10 9d e5 	ldr	r1, [sp, #20]
   120e0:	00 00 81 e5 	str	r0, [r1]
   120e4:	a0 ff ff ea 	b	#-384 <ScreenActivity.update+0x130>

SerialActivity.update:
   120e8:	00 48 2d e9 	push	{r11, lr}
   120ec:	0d b0 a0 e1 	mov	r11, sp
   120f0:	08 d0 4d e2 	sub	sp, sp, #8
   120f4:	1d 04 00 eb 	bl	#4212 <serial.isReadByteReady>
   120f8:	01 00 10 e3 	tst	r0, #1
   120fc:	02 00 00 1a 	bne	#8 <SerialActivity.update+0x24>
   12100:	ff ff ff ea 	b	#-4 <SerialActivity.update+0x1c>
   12104:	0b d0 a0 e1 	mov	sp, r11
   12108:	00 88 bd e8 	pop	{r11, pc}
   1210c:	ff ff ff ea 	b	#-4 <SerialActivity.update+0x28>
   12110:	20 04 00 eb 	bl	#4224 <serial.readByteBlocking>
   12114:	01 00 4b e5 	strb	r0, [r11, #-1]
   12118:	01 00 5b e5 	ldrb	r0, [r11, #-1]
   1211c:	00 10 a0 e1 	mov	r1, r0
   12120:	0d 00 50 e3 	cmp	r0, #13
   12124:	00 10 8d e5 	str	r1, [sp]
   12128:	0b 00 00 0a 	beq	#44 <SerialActivity.update+0x74>
   1212c:	ff ff ff ea 	b	#-4 <SerialActivity.update+0x48>
   12130:	00 00 9d e5 	ldr	r0, [sp]
   12134:	70 10 ef e6 	uxtb	r1, r0
   12138:	21 00 51 e3 	cmp	r1, #33
   1213c:	03 00 00 0a 	beq	#12 <SerialActivity.update+0x68>
   12140:	ff ff ff ea 	b	#-4 <SerialActivity.update+0x5c>
   12144:	01 00 5b e5 	ldrb	r0, [r11, #-1]
   12148:	1f 04 00 eb 	bl	#4220 <serial.writeByte>
   1214c:	06 00 00 ea 	b	#24 <SerialActivity.update+0x84>
   12150:	00 00 a0 e3 	mov	r0, #0
   12154:	25 04 00 eb 	bl	#4244 <serial.log.10>
   12158:	03 00 00 ea 	b	#12 <SerialActivity.update+0x84>
   1215c:	4c 0f 04 e3 	movw	r0, #20300
   12160:	03 00 40 e3 	movt	r0, #3
   12164:	24 03 00 eb 	bl	#3216 <serial.writeText>
   12168:	ff ff ff ea 	b	#-4 <SerialActivity.update+0x84>
   1216c:	0b d0 a0 e1 	mov	sp, r11
   12170:	00 88 bd e8 	pop	{r11, pc}

exceptionEntry0x00:
   12174:	00 48 2d e9 	push	{r11, lr}
   12178:	0d b0 a0 e1 	mov	r11, sp
   1217c:	08 d0 4d e2 	sub	sp, sp, #8
   12180:	0e 00 a0 e1 	mov	r0, lr
   12184:	04 00 8d e5 	str	r0, [sp, #4]
   12188:	04 00 9d e5 	ldr	r0, [sp, #4]
   1218c:	00 10 a0 e3 	mov	r1, #0
   12190:	ff ff ff eb 	bl	#-4 <exceptionHandler>

exceptionHandler:
   12194:	00 48 2d e9 	push	{r11, lr}
   12198:	0d b0 a0 e1 	mov	r11, sp
   1219c:	18 d0 4d e2 	sub	sp, sp, #24
   121a0:	08 00 0b e5 	str	r0, [r11, #-8]
   121a4:	0c 10 8d e5 	str	r1, [sp, #12]
   121a8:	71 00 04 e3 	movw	r0, #16497
   121ac:	05 00 40 e3 	movt	r0, #5
   121b0:	00 00 d0 e5 	ldrb	r0, [r0]
   121b4:	01 00 50 e3 	cmp	r0, #1
   121b8:	01 00 00 1a 	bne	#4 <exceptionHandler+0x30>
   121bc:	ff ff ff ea 	b	#-4 <exceptionHandler+0x2c>
   121c0:	1c 04 00 eb 	bl	#4208 <arm_assembly_code.panicf.11>
   121c4:	71 00 04 e3 	movw	r0, #16497
   121c8:	05 00 40 e3 	movt	r0, #5
   121cc:	01 10 a0 e3 	mov	r1, #1
   121d0:	00 10 c0 e5 	strb	r1, [r0]
   121d4:	27 04 00 eb 	bl	#4252 <serial.log.12>
   121d8:	36 04 00 eb 	bl	#4312 <serial.log.13>
   121dc:	0c 10 9d e5 	ldr	r1, [sp, #12]
   121e0:	64 0f 04 e3 	movw	r0, #20324
   121e4:	03 00 40 e3 	movt	r0, #3
   121e8:	8c fb ff eb 	bl	#-4560 <serial.hex>
   121ec:	41 04 00 eb 	bl	#4356 <arm_assembly_code.spsr>
   121f0:	6c 1f 04 e3 	movw	r1, #20332
   121f4:	03 10 40 e3 	movt	r1, #3
   121f8:	08 00 8d e5 	str	r0, [sp, #8]
   121fc:	01 00 a0 e1 	mov	r0, r1
   12200:	08 10 9d e5 	ldr	r1, [sp, #8]
   12204:	85 fb ff eb 	bl	#-4588 <serial.hex>
   12208:	40 04 00 eb 	bl	#4352 <arm_assembly_code.cpsr>
   1220c:	74 1f 04 e3 	movw	r1, #20340
   12210:	03 10 40 e3 	movt	r1, #3
   12214:	04 00 8d e5 	str	r0, [sp, #4]
   12218:	01 00 a0 e1 	mov	r0, r1
   1221c:	04 10 9d e5 	ldr	r1, [sp, #4]
   12220:	7e fb ff eb 	bl	#-4616 <serial.hex>
   12224:	08 10 1b e5 	ldr	r1, [r11, #-8]
   12228:	80 0f 04 e3 	movw	r0, #20352
   1222c:	03 00 40 e3 	movt	r0, #3
   12230:	7a fb ff eb 	bl	#-4632 <serial.hex>
   12234:	0d 00 a0 e1 	mov	r0, sp
   12238:	04 00 0b e5 	str	r0, [r11, #-4]
   1223c:	04 10 1b e5 	ldr	r1, [r11, #-4]
   12240:	8c 0f 04 e3 	movw	r0, #20364
   12244:	03 00 40 e3 	movt	r0, #3
   12248:	74 fb ff eb 	bl	#-4656 <serial.hex>
   1224c:	35 04 00 eb 	bl	#4308 <arm_assembly_code.sctlr>
   12250:	9c 1f 04 e3 	movw	r1, #20380
   12254:	03 10 40 e3 	movt	r1, #3
   12258:	00 00 8d e5 	str	r0, [sp]
   1225c:	01 00 a0 e1 	mov	r0, r1
   12260:	00 10 9d e5 	ldr	r1, [sp]
   12264:	6d fb ff eb 	bl	#-4684 <serial.hex>
   12268:	34 04 00 eb 	bl	#4304 <arm_assembly_code.hang.14>

exceptionEntry0x04:
   1226c:	00 48 2d e9 	push	{r11, lr}
   12270:	0d b0 a0 e1 	mov	r11, sp
   12274:	08 d0 4d e2 	sub	sp, sp, #8
   12278:	0e 00 a0 e1 	mov	r0, lr
   1227c:	04 00 8d e5 	str	r0, [sp, #4]
   12280:	04 00 9d e5 	ldr	r0, [sp, #4]
   12284:	04 10 a0 e3 	mov	r1, #4
   12288:	c1 ff ff eb 	bl	#-252 <exceptionHandler>

exceptionEntry0x08:
   1228c:	00 48 2d e9 	push	{r11, lr}
   12290:	0d b0 a0 e1 	mov	r11, sp
   12294:	08 d0 4d e2 	sub	sp, sp, #8
   12298:	0e 00 a0 e1 	mov	r0, lr
   1229c:	04 00 8d e5 	str	r0, [sp, #4]
   122a0:	04 00 9d e5 	ldr	r0, [sp, #4]
   122a4:	08 10 a0 e3 	mov	r1, #8
   122a8:	b9 ff ff eb 	bl	#-284 <exceptionHandler>

exceptionEntry0x0c:
   122ac:	00 48 2d e9 	push	{r11, lr}
   122b0:	0d b0 a0 e1 	mov	r11, sp
   122b4:	08 d0 4d e2 	sub	sp, sp, #8
   122b8:	0e 00 a0 e1 	mov	r0, lr
   122bc:	04 00 8d e5 	str	r0, [sp, #4]
   122c0:	04 00 9d e5 	ldr	r0, [sp, #4]
   122c4:	0c 10 a0 e3 	mov	r1, #12
   122c8:	b1 ff ff eb 	bl	#-316 <exceptionHandler>

exceptionEntry0x10:
   122cc:	00 48 2d e9 	push	{r11, lr}
   122d0:	0d b0 a0 e1 	mov	r11, sp
   122d4:	08 d0 4d e2 	sub	sp, sp, #8
   122d8:	0e 00 a0 e1 	mov	r0, lr
   122dc:	04 00 8d e5 	str	r0, [sp, #4]
   122e0:	04 00 9d e5 	ldr	r0, [sp, #4]
   122e4:	10 10 a0 e3 	mov	r1, #16
   122e8:	a9 ff ff eb 	bl	#-348 <exceptionHandler>

exceptionEntry0x14:
   122ec:	00 48 2d e9 	push	{r11, lr}
   122f0:	0d b0 a0 e1 	mov	r11, sp
   122f4:	08 d0 4d e2 	sub	sp, sp, #8
   122f8:	0e 00 a0 e1 	mov	r0, lr
   122fc:	04 00 8d e5 	str	r0, [sp, #4]
   12300:	04 00 9d e5 	ldr	r0, [sp, #4]
   12304:	14 10 a0 e3 	mov	r1, #20
   12308:	a1 ff ff eb 	bl	#-380 <exceptionHandler>

exceptionEntry0x18:
   1230c:	00 48 2d e9 	push	{r11, lr}
   12310:	0d b0 a0 e1 	mov	r11, sp
   12314:	08 d0 4d e2 	sub	sp, sp, #8
   12318:	0e 00 a0 e1 	mov	r0, lr
   1231c:	04 00 8d e5 	str	r0, [sp, #4]
   12320:	04 00 9d e5 	ldr	r0, [sp, #4]
   12324:	18 10 a0 e3 	mov	r1, #24
   12328:	99 ff ff eb 	bl	#-412 <exceptionHandler>

exceptionEntry0x1c:
   1232c:	00 48 2d e9 	push	{r11, lr}
   12330:	0d b0 a0 e1 	mov	r11, sp
   12334:	08 d0 4d e2 	sub	sp, sp, #8
   12338:	0e 00 a0 e1 	mov	r0, lr
   1233c:	04 00 8d e5 	str	r0, [sp, #4]
   12340:	04 00 9d e5 	ldr	r0, [sp, #4]
   12344:	1c 10 a0 e3 	mov	r1, #28
   12348:	91 ff ff eb 	bl	#-444 <exceptionHandler>

arm_assembly_code.hang:
   1234c:	00 48 2d e9 	push	{r11, lr}
   12350:	0d b0 a0 e1 	mov	r11, sp
   12354:	00 04 00 eb 	bl	#4096 <serial.log.15>
   12358:	ff ff ff ea 	b	#-4 <arm_assembly_code.hang+0x10>
   1235c:	ff ff ff ea 	b	#-4 <arm_assembly_code.hang+0x14>
   12360:	0d 04 00 eb 	bl	#4148 <arm_assembly_code.v7.wfe>
   12364:	fc ff ff ea 	b	#-16 <arm_assembly_code.hang+0x10>

serial.log.4:
   12368:	00 48 2d e9 	push	{r11, lr}
   1236c:	0d b0 a0 e1 	mov	r11, sp
   12370:	98 d0 4d e2 	sub	sp, sp, #152
   12374:	00 10 a0 e3 	mov	r1, #0
   12378:	0c 10 8d e5 	str	r1, [sp, #12]
   1237c:	18 10 8d e2 	add	r1, sp, #24
   12380:	10 10 8d e5 	str	r1, [sp, #16]
   12384:	20 10 a0 e3 	mov	r1, #32
   12388:	14 10 8d e5 	str	r1, [sp, #20]
   1238c:	3c 14 02 e3 	movw	r1, #9276
   12390:	01 10 40 e3 	movt	r1, #1
   12394:	0c 20 8d e2 	add	r2, sp, #12
   12398:	04 00 8d e5 	str	r0, [sp, #4]
   1239c:	02 00 a0 e1 	mov	r0, r2
   123a0:	04 20 9d e5 	ldr	r2, [sp, #4]
   123a4:	fe 03 00 eb 	bl	#4088 <std.fmt.format.16>
   123a8:	ba 00 cd e1 	strh	r0, [sp, #10]
   123ac:	0b d0 a0 e1 	mov	sp, r11
   123b0:	00 88 bd e8 	pop	{r11, pc}

arm_assembly_code.hang.5:
   123b4:	00 48 2d e9 	push	{r11, lr}
   123b8:	0d b0 a0 e1 	mov	r11, sp
   123bc:	1c 04 00 eb 	bl	#4208 <serial.log.17>
   123c0:	ff ff ff ea 	b	#-4 <arm_assembly_code.hang.5+0x10>
   123c4:	ff ff ff ea 	b	#-4 <arm_assembly_code.hang.5+0x14>
   123c8:	f3 03 00 eb 	bl	#4044 <arm_assembly_code.v7.wfe>
   123cc:	fc ff ff ea 	b	#-16 <arm_assembly_code.hang.5+0x10>

gpio.useAsAlt5:
   123d0:	00 48 2d e9 	push	{r11, lr}
   123d4:	0d b0 a0 e1 	mov	r11, sp
   123d8:	08 d0 4d e2 	sub	sp, sp, #8
   123dc:	04 00 8d e5 	str	r0, [sp, #4]
   123e0:	04 00 9d e5 	ldr	r0, [sp, #4]
   123e4:	00 10 a0 e3 	mov	r1, #0
   123e8:	21 04 00 eb 	bl	#4228 <gpio.setPinPull>
   123ec:	04 00 9d e5 	ldr	r0, [sp, #4]
   123f0:	02 10 a0 e3 	mov	r1, #2
   123f4:	37 04 00 eb 	bl	#4316 <gpio.setPinFunction>
   123f8:	0b d0 a0 e1 	mov	sp, r11
   123fc:	00 88 bd e8 	pop	{r11, pc}

std.fmt.format:
   12400:	00 48 2d e9 	push	{r11, lr}
   12404:	0d b0 a0 e1 	mov	r11, sp
   12408:	10 d0 4d e2 	sub	sp, sp, #16
   1240c:	08 10 8d e5 	str	r1, [sp, #8]
   12410:	08 10 9d e5 	ldr	r1, [sp, #8]
   12414:	b4 2f 04 e3 	movw	r2, #20404
   12418:	03 20 40 e3 	movt	r2, #3
   1241c:	04 10 8d e5 	str	r1, [sp, #4]
   12420:	02 10 a0 e1 	mov	r1, r2
   12424:	04 20 9d e5 	ldr	r2, [sp, #4]
   12428:	32 ff 2f e1 	blx	r2
   1242c:	b2 00 4b e1 	strh	r0, [r11, #-2]
   12430:	00 00 a0 e3 	mov	r0, #0
   12434:	0b d0 a0 e1 	mov	sp, r11
   12438:	00 88 bd e8 	pop	{r11, pc}

serial.logBytes:
   1243c:	00 48 2d e9 	push	{r11, lr}
   12440:	0d b0 a0 e1 	mov	r11, sp
   12444:	01 00 a0 e1 	mov	r0, r1
   12448:	6b 02 00 eb 	bl	#2476 <serial.writeText>
   1244c:	00 00 a0 e3 	mov	r0, #0
   12450:	00 88 bd e8 	pop	{r11, pc}

std.fmt.format.6:
   12454:	00 48 2d e9 	push	{r11, lr}
   12458:	0d b0 a0 e1 	mov	r11, sp
   1245c:	30 d0 4d e2 	sub	sp, sp, #48
   12460:	10 10 0b e5 	str	r1, [r11, #-16]
   12464:	10 10 1b e5 	ldr	r1, [r11, #-16]
   12468:	c8 cf 04 e3 	movw	r12, #20424
   1246c:	03 c0 40 e3 	movt	r12, #3
   12470:	14 00 0b e5 	str	r0, [r11, #-20]
   12474:	18 10 8d e5 	str	r1, [sp, #24]
   12478:	0c 10 a0 e1 	mov	r1, r12
   1247c:	18 c0 9d e5 	ldr	r12, [sp, #24]
   12480:	14 30 8d e5 	str	r3, [sp, #20]
   12484:	10 20 8d e5 	str	r2, [sp, #16]
   12488:	3c ff 2f e1 	blx	r12
   1248c:	b2 00 4b e1 	strh	r0, [r11, #-2]
   12490:	10 30 1b e5 	ldr	r3, [r11, #-16]
   12494:	0d 00 a0 e1 	mov	r0, sp
   12498:	03 10 a0 e3 	mov	r1, #3
   1249c:	00 10 80 e5 	str	r1, [r0]
   124a0:	d0 2f 04 e3 	movw	r2, #20432
   124a4:	03 20 40 e3 	movt	r2, #3
   124a8:	14 00 1b e5 	ldr	r0, [r11, #-20]
   124ac:	10 c0 9d e5 	ldr	r12, [sp, #16]
   124b0:	0c 10 8d e5 	str	r1, [sp, #12]
   124b4:	0c 10 a0 e1 	mov	r1, r12
   124b8:	10 04 00 eb 	bl	#4160 <std.fmt.formatType>
   124bc:	b4 00 4b e1 	strh	r0, [r11, #-4]
   124c0:	10 00 1b e5 	ldr	r0, [r11, #-16]
   124c4:	e4 1f 04 e3 	movw	r1, #20452
   124c8:	03 10 40 e3 	movt	r1, #3
   124cc:	14 20 1b e5 	ldr	r2, [r11, #-20]
   124d0:	08 00 8d e5 	str	r0, [sp, #8]
   124d4:	02 00 a0 e1 	mov	r0, r2
   124d8:	08 30 9d e5 	ldr	r3, [sp, #8]
   124dc:	33 ff 2f e1 	blx	r3
   124e0:	b6 00 4b e1 	strh	r0, [r11, #-6]
   124e4:	10 30 1b e5 	ldr	r3, [r11, #-16]
   124e8:	0d 00 a0 e1 	mov	r0, sp
   124ec:	0c 10 9d e5 	ldr	r1, [sp, #12]
   124f0:	00 10 80 e5 	str	r1, [r0]
   124f4:	ec 2f 04 e3 	movw	r2, #20460
   124f8:	03 20 40 e3 	movt	r2, #3
   124fc:	14 00 1b e5 	ldr	r0, [r11, #-20]
   12500:	14 10 9d e5 	ldr	r1, [sp, #20]
   12504:	17 04 00 eb 	bl	#4188 <std.fmt.formatType.18>
   12508:	b8 00 4b e1 	strh	r0, [r11, #-8]
   1250c:	10 00 1b e5 	ldr	r0, [r11, #-16]
   12510:	00 10 05 e3 	movw	r1, #20480
   12514:	03 10 40 e3 	movt	r1, #3
   12518:	14 20 1b e5 	ldr	r2, [r11, #-20]
   1251c:	04 00 8d e5 	str	r0, [sp, #4]
   12520:	02 00 a0 e1 	mov	r0, r2
   12524:	04 30 9d e5 	ldr	r3, [sp, #4]
   12528:	33 ff 2f e1 	blx	r3
   1252c:	ba 00 4b e1 	strh	r0, [r11, #-10]
   12530:	00 00 a0 e3 	mov	r0, #0
   12534:	0b d0 a0 e1 	mov	sp, r11
   12538:	00 88 bd e8 	pop	{r11, pc}

video_core_properties.tag:
   1253c:	08 d0 4d e2 	sub	sp, sp, #8
   12540:	04 10 8d e5 	str	r1, [sp, #4]
   12544:	00 20 8d e5 	str	r2, [sp]
   12548:	03 10 a0 e3 	mov	r1, #3
   1254c:	08 10 c0 e5 	strb	r1, [r0, #8]
   12550:	04 10 9d e5 	ldr	r1, [sp, #4]
   12554:	00 10 80 e5 	str	r1, [r0]
   12558:	00 10 9d e5 	ldr	r1, [sp]
   1255c:	04 10 80 e5 	str	r1, [r0, #4]
   12560:	08 d0 8d e2 	add	sp, sp, #8
   12564:	1e ff 2f e1 	bx	lr

video_core_properties.in:
   12568:	04 d0 4d e2 	sub	sp, sp, #4
   1256c:	00 10 8d e5 	str	r1, [sp]
   12570:	00 10 a0 e3 	mov	r1, #0
   12574:	08 10 c0 e5 	strb	r1, [r0, #8]
   12578:	00 10 9d e5 	ldr	r1, [sp]
   1257c:	00 10 80 e5 	str	r1, [r0]
   12580:	04 d0 8d e2 	add	sp, sp, #4
   12584:	1e ff 2f e1 	bx	lr

video_core_properties.out:
   12588:	04 d0 4d e2 	sub	sp, sp, #4
   1258c:	00 10 8d e5 	str	r1, [sp]
   12590:	01 10 a0 e3 	mov	r1, #1
   12594:	08 10 c0 e5 	strb	r1, [r0, #8]
   12598:	00 10 9d e5 	ldr	r1, [sp]
   1259c:	00 10 80 e5 	str	r1, [r0]
   125a0:	04 d0 8d e2 	add	sp, sp, #4
   125a4:	1e ff 2f e1 	bx	lr

video_core_properties.set:
   125a8:	04 d0 4d e2 	sub	sp, sp, #4
   125ac:	00 10 8d e5 	str	r1, [sp]
   125b0:	02 10 a0 e3 	mov	r1, #2
   125b4:	08 10 c0 e5 	strb	r1, [r0, #8]
   125b8:	00 10 9d e5 	ldr	r1, [sp]
   125bc:	00 10 80 e5 	str	r1, [r0]
   125c0:	04 d0 8d e2 	add	sp, sp, #4
   125c4:	1e ff 2f e1 	bx	lr

video_core_properties.callVideoCoreProperties:
   125c8:	00 48 2d e9 	push	{r11, lr}
   125cc:	0d b0 a0 e1 	mov	r11, sp
   125d0:	80 d0 4d e2 	sub	sp, sp, #128
   125d4:	74 10 04 e3 	movw	r1, #16500
   125d8:	05 10 40 e3 	movt	r1, #5
   125dc:	00 20 a0 e3 	mov	r2, #0
   125e0:	00 20 81 e5 	str	r2, [r1]
   125e4:	04 20 0b e5 	str	r2, [r11, #-4]
   125e8:	04 30 1b e5 	ldr	r3, [r11, #-4]
   125ec:	1c 00 0b e5 	str	r0, [r11, #-28]
   125f0:	03 00 a0 e1 	mov	r0, r3
   125f4:	20 10 0b e5 	str	r1, [r11, #-32]
   125f8:	24 20 0b e5 	str	r2, [r11, #-36]
   125fc:	f3 03 00 eb 	bl	#4044 <video_core_properties.add>
   12600:	24 00 1b e5 	ldr	r0, [r11, #-36]
   12604:	f1 03 00 eb 	bl	#4036 <video_core_properties.add>
   12608:	20 00 1b e5 	ldr	r0, [r11, #-32]
   1260c:	00 10 90 e5 	ldr	r1, [r0]
   12610:	08 10 0b e5 	str	r1, [r11, #-8]
   12614:	24 10 1b e5 	ldr	r1, [r11, #-36]
   12618:	0c 10 0b e5 	str	r1, [r11, #-12]
   1261c:	1c 20 1b e5 	ldr	r2, [r11, #-28]
   12620:	04 30 92 e5 	ldr	r3, [r2, #4]
   12624:	28 30 0b e5 	str	r3, [r11, #-40]
   12628:	ff ff ff ea 	b	#-4 <video_core_properties.callVideoCoreProperties+0x64>
   1262c:	0c 00 1b e5 	ldr	r0, [r11, #-12]
   12630:	28 10 1b e5 	ldr	r1, [r11, #-40]
   12634:	01 00 50 e1 	cmp	r0, r1
   12638:	2c 00 0b e5 	str	r0, [r11, #-44]
   1263c:	40 00 00 2a 	bhs	#256 <$a.4+0xac>
   12640:	ff ff ff ea 	b	#-4 <video_core_properties.callVideoCoreProperties+0x7c>
   12644:	1c 00 1b e5 	ldr	r0, [r11, #-28]
   12648:	00 10 90 e5 	ldr	r1, [r0]
   1264c:	2c 20 1b e5 	ldr	r2, [r11, #-44]
   12650:	82 30 82 e0 	add	r3, r2, r2, lsl #1
   12654:	03 11 81 e0 	add	r1, r1, r3, lsl #2
   12658:	08 30 d1 e5 	ldrb	r3, [r1, #8]
   1265c:	02 30 83 e2 	add	r3, r3, #2
   12660:	03 30 03 e2 	and	r3, r3, #3
   12664:	00 c0 a0 e3 	mov	r12, #0
   12668:	00 00 5c e3 	cmp	r12, #0
   1266c:	30 10 0b e5 	str	r1, [r11, #-48]
   12670:	34 30 0b e5 	str	r3, [r11, #-52]
   12674:	07 00 00 1a 	bne	#28 <$a.4>
   12678:	08 00 8f e2 	add	r0, pc, #8
   1267c:	34 10 1b e5 	ldr	r1, [r11, #-52]
   12680:	01 01 90 e7 	ldr	r0, [r0, r1, lsl #2]
   12684:	00 f0 a0 e1 	mov	pc, r0

$d.3:
   12688:	20 27 01 00 	.word	0x00012720
   1268c:	a8 26 01 00 	.word	0x000126a8
   12690:	0c 27 01 00 	.word	0x0001270c
   12694:	08 27 01 00 	.word	0x00012708

$a.4:
   12698:	20 00 05 e3 	movw	r0, #20512
   1269c:	03 00 40 e3 	movt	r0, #3
   126a0:	00 10 a0 e3 	mov	r1, #0
   126a4:	e6 fa ff eb 	bl	#-5224 <panic>
   126a8:	08 00 1b e5 	ldr	r0, [r11, #-8]
   126ac:	74 10 04 e3 	movw	r1, #16500
   126b0:	05 10 40 e3 	movt	r1, #5
   126b4:	00 00 81 e5 	str	r0, [r1]
   126b8:	30 00 1b e5 	ldr	r0, [r11, #-48]
   126bc:	00 00 90 e5 	ldr	r0, [r0]
   126c0:	38 10 0b e5 	str	r1, [r11, #-56]
   126c4:	c1 03 00 eb 	bl	#3844 <video_core_properties.add>
   126c8:	30 00 1b e5 	ldr	r0, [r11, #-48]
   126cc:	04 00 90 e5 	ldr	r0, [r0, #4]
   126d0:	be 03 00 eb 	bl	#3832 <video_core_properties.add>
   126d4:	00 00 a0 e3 	mov	r0, #0
   126d8:	3c 00 0b e5 	str	r0, [r11, #-60]
   126dc:	bb 03 00 eb 	bl	#3820 <video_core_properties.add>
   126e0:	38 00 1b e5 	ldr	r0, [r11, #-56]
   126e4:	00 10 90 e5 	ldr	r1, [r0]
   126e8:	30 20 1b e5 	ldr	r2, [r11, #-48]
   126ec:	04 30 92 e5 	ldr	r3, [r2, #4]
   126f0:	3c c0 1b e5 	ldr	r12, [r11, #-60]
   126f4:	00 00 5c e3 	cmp	r12, #0
   126f8:	40 10 8d e5 	str	r1, [sp, #64]
   126fc:	3c 30 8d e5 	str	r3, [sp, #60]
   12700:	95 00 00 1a 	bne	#596 <$a.6+0xec>
   12704:	98 00 00 ea 	b	#608 <$a.6+0xfc>
   12708:	09 00 00 ea 	b	#36 <$a.4+0x9c>
   1270c:	30 00 1b e5 	ldr	r0, [r11, #-48]
   12710:	00 10 90 e5 	ldr	r1, [r0]
   12714:	00 00 91 e5 	ldr	r0, [r1]
   12718:	ac 03 00 eb 	bl	#3760 <video_core_properties.add>
   1271c:	04 00 00 ea 	b	#16 <$a.4+0x9c>
   12720:	30 00 1b e5 	ldr	r0, [r11, #-48]
   12724:	00 10 90 e5 	ldr	r1, [r0]
   12728:	00 00 91 e5 	ldr	r0, [r1]
   1272c:	a7 03 00 eb 	bl	#3740 <video_core_properties.add>
   12730:	ff ff ff ea 	b	#-4 <$a.4+0x9c>
   12734:	2c 00 1b e5 	ldr	r0, [r11, #-44]
   12738:	01 10 80 e2 	add	r1, r0, #1
   1273c:	0c 10 0b e5 	str	r1, [r11, #-12]
   12740:	b9 ff ff ea 	b	#-284 <video_core_properties.callVideoCoreProperties+0x64>
   12744:	08 00 1b e5 	ldr	r0, [r11, #-8]
   12748:	74 10 04 e3 	movw	r1, #16500
   1274c:	05 10 40 e3 	movt	r1, #5
   12750:	00 00 81 e5 	str	r0, [r1]
   12754:	00 00 a0 e3 	mov	r0, #0
   12758:	38 10 8d e5 	str	r1, [sp, #56]
   1275c:	9b 03 00 eb 	bl	#3692 <video_core_properties.add>
   12760:	38 00 9d e5 	ldr	r0, [sp, #56]
   12764:	00 10 90 e5 	ldr	r1, [r0]
   12768:	01 21 a0 e1 	lsl	r2, r1, #2
   1276c:	21 1f a0 e1 	lsr	r1, r1, #30
   12770:	00 00 51 e3 	cmp	r1, #0
   12774:	34 20 8d e5 	str	r2, [sp, #52]
   12778:	89 00 00 1a 	bne	#548 <$a.6+0x134>
   1277c:	8c 00 00 ea 	b	#560 <$a.6+0x144>
   12780:	b2 03 00 eb 	bl	#3784 <arm_assembly_code.panicf.19>
   12784:	ff ff ff ea 	b	#-4 <$a.4+0xf0>
   12788:	10 00 1b e5 	ldr	r0, [r11, #-16]
   1278c:	08 00 80 e3 	orr	r0, r0, #8
   12790:	14 00 0b e5 	str	r0, [r11, #-20]
   12794:	14 10 1b e5 	ldr	r1, [r11, #-20]
   12798:	a0 08 0b e3 	movw	r0, #47264
   1279c:	00 0f 43 e3 	movt	r0, #16128
   127a0:	ba 03 00 eb 	bl	#3816 <video_core_mailboxes.MailboxRegisters.pushRequestBlocking>
   127a4:	14 10 1b e5 	ldr	r1, [r11, #-20]
   127a8:	80 08 0b e3 	movw	r0, #47232
   127ac:	00 0f 43 e3 	movt	r0, #16128
   127b0:	c4 03 00 eb 	bl	#3856 <video_core_mailboxes.MailboxRegisters.pullResponseBlocking>
   127b4:	74 00 04 e3 	movw	r0, #16500
   127b8:	05 00 40 e3 	movt	r0, #5
   127bc:	00 10 a0 e3 	mov	r1, #0
   127c0:	00 10 80 e5 	str	r1, [r0]
   127c4:	04 20 1b e5 	ldr	r2, [r11, #-4]
   127c8:	30 00 8d e5 	str	r0, [sp, #48]
   127cc:	02 00 a0 e1 	mov	r0, r2
   127d0:	2c 10 8d e5 	str	r1, [sp, #44]
   127d4:	d1 03 00 eb 	bl	#3908 <video_core_properties.check>
   127d8:	02 01 a0 e3 	mov	r0, #-2147483648
   127dc:	cf 03 00 eb 	bl	#3900 <video_core_properties.check>
   127e0:	30 00 9d e5 	ldr	r0, [sp, #48]
   127e4:	00 10 90 e5 	ldr	r1, [r0]
   127e8:	08 10 0b e5 	str	r1, [r11, #-8]
   127ec:	2c 10 9d e5 	ldr	r1, [sp, #44]
   127f0:	18 10 0b e5 	str	r1, [r11, #-24]
   127f4:	1c 20 1b e5 	ldr	r2, [r11, #-28]
   127f8:	04 30 92 e5 	ldr	r3, [r2, #4]
   127fc:	28 30 8d e5 	str	r3, [sp, #40]
   12800:	ff ff ff ea 	b	#-4 <$a.4+0x16c>
   12804:	18 00 1b e5 	ldr	r0, [r11, #-24]
   12808:	28 10 9d e5 	ldr	r1, [sp, #40]
   1280c:	01 00 50 e1 	cmp	r0, r1
   12810:	24 00 8d e5 	str	r0, [sp, #36]
   12814:	4c 00 00 2a 	bhs	#304 <$a.6+0xdc>
   12818:	ff ff ff ea 	b	#-4 <$a.4+0x184>
   1281c:	1c 00 1b e5 	ldr	r0, [r11, #-28]
   12820:	00 10 90 e5 	ldr	r1, [r0]
   12824:	24 20 9d e5 	ldr	r2, [sp, #36]
   12828:	82 30 82 e0 	add	r3, r2, r2, lsl #1
   1282c:	03 11 81 e0 	add	r1, r1, r3, lsl #2
   12830:	08 30 d1 e5 	ldrb	r3, [r1, #8]
   12834:	02 30 83 e2 	add	r3, r3, #2
   12838:	03 30 03 e2 	and	r3, r3, #3
   1283c:	00 c0 a0 e3 	mov	r12, #0
   12840:	00 00 5c e3 	cmp	r12, #0
   12844:	20 10 8d e5 	str	r1, [sp, #32]
   12848:	1c 30 8d e5 	str	r3, [sp, #28]
   1284c:	10 00 00 1a 	bne	#64 <$a.6+0x24>
   12850:	08 00 8f e2 	add	r0, pc, #8
   12854:	1c 10 9d e5 	ldr	r1, [sp, #28]
   12858:	01 01 90 e7 	ldr	r0, [r0, r1, lsl #2]
   1285c:	00 f0 a0 e1 	mov	pc, r0

$d.5:
   12860:	28 29 01 00 	.word	0x00012928
   12864:	70 28 01 00 	.word	0x00012870
   12868:	24 29 01 00 	.word	0x00012924
   1286c:	08 29 01 00 	.word	0x00012908

$a.6:
   12870:	20 00 9d e5 	ldr	r0, [sp, #32]
   12874:	20 10 9d e5 	ldr	r1, [sp, #32]
   12878:	00 20 91 e5 	ldr	r2, [r1]
   1287c:	00 00 52 e3 	cmp	r2, #0
   12880:	18 00 8d e5 	str	r0, [sp, #24]
   12884:	01 00 00 0a 	beq	#4 <$a.6+0x20>
   12888:	ff ff ff ea 	b	#-4 <$a.6+0x1c>
   1288c:	04 00 00 ea 	b	#16 <$a.6+0x34>
   12890:	03 00 00 ea 	b	#12 <$a.6+0x34>
   12894:	20 00 05 e3 	movw	r0, #20512
   12898:	03 00 40 e3 	movt	r0, #3
   1289c:	00 10 a0 e3 	mov	r1, #0
   128a0:	67 fa ff eb 	bl	#-5732 <panic>
   128a4:	08 00 1b e5 	ldr	r0, [r11, #-8]
   128a8:	74 10 04 e3 	movw	r1, #16500
   128ac:	05 10 40 e3 	movt	r1, #5
   128b0:	00 00 81 e5 	str	r0, [r1]
   128b4:	18 00 9d e5 	ldr	r0, [sp, #24]
   128b8:	00 00 90 e5 	ldr	r0, [r0]
   128bc:	14 10 8d e5 	str	r1, [sp, #20]
   128c0:	96 03 00 eb 	bl	#3672 <video_core_properties.check>
   128c4:	18 00 9d e5 	ldr	r0, [sp, #24]
   128c8:	04 00 90 e5 	ldr	r0, [r0, #4]
   128cc:	93 03 00 eb 	bl	#3660 <video_core_properties.check>
   128d0:	18 00 9d e5 	ldr	r0, [sp, #24]
   128d4:	04 10 90 e5 	ldr	r1, [r0, #4]
   128d8:	02 01 81 e3 	orr	r0, r1, #-2147483648
   128dc:	8f 03 00 eb 	bl	#3644 <video_core_properties.check>
   128e0:	14 00 9d e5 	ldr	r0, [sp, #20]
   128e4:	00 10 90 e5 	ldr	r1, [r0]
   128e8:	18 20 9d e5 	ldr	r2, [sp, #24]
   128ec:	04 30 92 e5 	ldr	r3, [r2, #4]
   128f0:	00 c0 a0 e3 	mov	r12, #0
   128f4:	00 00 5c e3 	cmp	r12, #0
   128f8:	10 10 8d e5 	str	r1, [sp, #16]
   128fc:	0c 30 8d e5 	str	r3, [sp, #12]
   12900:	3a 00 00 1a 	bne	#232 <$a.6+0x180>
   12904:	3d 00 00 ea 	b	#244 <$a.6+0x190>
   12908:	20 00 9d e5 	ldr	r0, [sp, #32]
   1290c:	00 10 90 e5 	ldr	r1, [r0]
   12910:	08 10 8d e5 	str	r1, [sp, #8]
   12914:	a8 03 00 eb 	bl	#3744 <video_core_properties.next>
   12918:	08 10 9d e5 	ldr	r1, [sp, #8]
   1291c:	00 00 81 e5 	str	r0, [r1]
   12920:	05 00 00 ea 	b	#20 <$a.6+0xcc>
   12924:	04 00 00 ea 	b	#16 <$a.6+0xcc>
   12928:	20 00 9d e5 	ldr	r0, [sp, #32]
   1292c:	00 10 90 e5 	ldr	r1, [r0]
   12930:	00 00 91 e5 	ldr	r0, [r1]
   12934:	79 03 00 eb 	bl	#3556 <video_core_properties.check>
   12938:	ff ff ff ea 	b	#-4 <$a.6+0xcc>
   1293c:	24 00 9d e5 	ldr	r0, [sp, #36]
   12940:	01 10 80 e2 	add	r1, r0, #1
   12944:	18 10 0b e5 	str	r1, [r11, #-24]
   12948:	ad ff ff ea 	b	#-332 <$a.4+0x16c>
   1294c:	00 00 a0 e3 	mov	r0, #0
   12950:	72 03 00 eb 	bl	#3528 <video_core_properties.check>
   12954:	0b d0 a0 e1 	mov	sp, r11
   12958:	00 88 bd e8 	pop	{r11, pc}
   1295c:	28 00 05 e3 	movw	r0, #20520
   12960:	03 00 40 e3 	movt	r0, #3
   12964:	00 10 a0 e3 	mov	r1, #0
   12968:	35 fa ff eb 	bl	#-5932 <panic>
   1296c:	40 00 9d e5 	ldr	r0, [sp, #64]
   12970:	3c 10 9d e5 	ldr	r1, [sp, #60]
   12974:	21 21 80 e0 	add	r2, r0, r1, lsr #2
   12978:	00 00 52 e1 	cmp	r2, r0
   1297c:	04 20 8d e5 	str	r2, [sp, #4]
   12980:	04 00 00 2a 	bhs	#16 <$a.6+0x128>
   12984:	ff ff ff ea 	b	#-4 <$a.6+0x118>
   12988:	d8 0e 04 e3 	movw	r0, #20184
   1298c:	03 00 40 e3 	movt	r0, #3
   12990:	00 10 a0 e3 	mov	r1, #0
   12994:	2a fa ff eb 	bl	#-5976 <panic>
   12998:	04 00 9d e5 	ldr	r0, [sp, #4]
   1299c:	08 00 0b e5 	str	r0, [r11, #-8]
   129a0:	63 ff ff ea 	b	#-628 <$a.4+0x9c>
   129a4:	d8 0e 04 e3 	movw	r0, #20184
   129a8:	03 00 40 e3 	movt	r0, #3
   129ac:	00 10 a0 e3 	mov	r1, #0
   129b0:	23 fa ff eb 	bl	#-6004 <panic>
   129b4:	34 00 9d e5 	ldr	r0, [sp, #52]
   129b8:	04 00 0b e5 	str	r0, [r11, #-4]
   129bc:	74 10 04 e3 	movw	r1, #16500
   129c0:	05 10 40 e3 	movt	r1, #5
   129c4:	00 20 a0 e3 	mov	r2, #0
   129c8:	00 20 81 e5 	str	r2, [r1]
   129cc:	04 00 1b e5 	ldr	r0, [r11, #-4]
   129d0:	fe 02 00 eb 	bl	#3064 <video_core_properties.add>
   129d4:	80 00 04 e3 	movw	r0, #16512
   129d8:	05 00 40 e3 	movt	r0, #5
   129dc:	10 00 0b e5 	str	r0, [r11, #-16]
   129e0:	10 00 5b e5 	ldrb	r0, [r11, #-16]
   129e4:	0f 00 10 e3 	tst	r0, #15
   129e8:	64 ff ff 1a 	bne	#-624 <$a.4+0xe8>
   129ec:	64 ff ff ea 	b	#-624 <$a.4+0xec>
   129f0:	28 00 05 e3 	movw	r0, #20520
   129f4:	03 00 40 e3 	movt	r0, #3
   129f8:	00 10 a0 e3 	mov	r1, #0
   129fc:	10 fa ff eb 	bl	#-6080 <panic>
   12a00:	10 00 9d e5 	ldr	r0, [sp, #16]
   12a04:	0c 10 9d e5 	ldr	r1, [sp, #12]
   12a08:	21 21 80 e0 	add	r2, r0, r1, lsr #2
   12a0c:	00 00 52 e1 	cmp	r2, r0
   12a10:	00 20 8d e5 	str	r2, [sp]
   12a14:	04 00 00 2a 	bhs	#16 <$a.6+0x1bc>
   12a18:	ff ff ff ea 	b	#-4 <$a.6+0x1ac>
   12a1c:	d8 0e 04 e3 	movw	r0, #20184
   12a20:	03 00 40 e3 	movt	r0, #3
   12a24:	00 10 a0 e3 	mov	r1, #0
   12a28:	05 fa ff eb 	bl	#-6124 <panic>
   12a2c:	00 00 9d e5 	ldr	r0, [sp]
   12a30:	08 00 0b e5 	str	r0, [r11, #-8]
   12a34:	c0 ff ff ea 	b	#-256 <$a.6+0xcc>

arm_assembly_code.panicf.7:
   12a38:	00 48 2d e9 	push	{r11, lr}
   12a3c:	0d b0 a0 e1 	mov	r11, sp
   12a40:	70 00 04 e3 	movw	r0, #16496
   12a44:	05 00 40 e3 	movt	r0, #5
   12a48:	00 00 d0 e5 	ldrb	r0, [r0]
   12a4c:	01 00 50 e3 	cmp	r0, #1
   12a50:	01 00 00 1a 	bne	#4 <arm_assembly_code.panicf.7+0x24>
   12a54:	ff ff ff ea 	b	#-4 <arm_assembly_code.panicf.7+0x20>
   12a58:	3b fe ff eb 	bl	#-1812 <arm_assembly_code.hang>
   12a5c:	ff ff ff ea 	b	#-4 <arm_assembly_code.panicf.7+0x28>
   12a60:	70 00 04 e3 	movw	r0, #16496
   12a64:	05 00 40 e3 	movt	r0, #5
   12a68:	01 10 a0 e3 	mov	r1, #1
   12a6c:	00 10 c0 e5 	strb	r1, [r0]
   12a70:	6f 03 00 eb 	bl	#3516 <serial.log.20>
   12a74:	4e fe ff eb 	bl	#-1736 <arm_assembly_code.hang.5>

std.fmt.format.8:
   12a78:	00 48 2d e9 	push	{r11, lr}
   12a7c:	0d b0 a0 e1 	mov	r11, sp
   12a80:	10 d0 4d e2 	sub	sp, sp, #16
   12a84:	08 10 8d e5 	str	r1, [sp, #8]
   12a88:	08 10 9d e5 	ldr	r1, [sp, #8]
   12a8c:	44 20 05 e3 	movw	r2, #20548
   12a90:	03 20 40 e3 	movt	r2, #3
   12a94:	04 10 8d e5 	str	r1, [sp, #4]
   12a98:	02 10 a0 e1 	mov	r1, r2
   12a9c:	04 20 9d e5 	ldr	r2, [sp, #4]
   12aa0:	32 ff 2f e1 	blx	r2
   12aa4:	b2 00 4b e1 	strh	r0, [r11, #-2]
   12aa8:	00 00 a0 e3 	mov	r0, #0
   12aac:	0b d0 a0 e1 	mov	sp, r11
   12ab0:	00 88 bd e8 	pop	{r11, pc}

video_core_frame_buffer.Bitmap.getUnalignedU32:
   12ab4:	00 48 2d e9 	push	{r11, lr}
   12ab8:	0d b0 a0 e1 	mov	r11, sp
   12abc:	20 d0 4d e2 	sub	sp, sp, #32
   12ac0:	0c 00 0b e5 	str	r0, [r11, #-12]
   12ac4:	10 10 8d e5 	str	r1, [sp, #16]
   12ac8:	00 00 a0 e3 	mov	r0, #0
   12acc:	04 00 0b e5 	str	r0, [r11, #-4]
   12ad0:	08 00 0b e5 	str	r0, [r11, #-8]
   12ad4:	ff ff ff ea 	b	#-4 <video_core_frame_buffer.Bitmap.getUnalignedU32+0x24>
   12ad8:	08 00 1b e5 	ldr	r0, [r11, #-8]
   12adc:	03 00 50 e3 	cmp	r0, #3
   12ae0:	0c 00 00 8a 	bhi	#48 <video_core_frame_buffer.Bitmap.getUnalignedU32+0x64>
   12ae4:	ff ff ff ea 	b	#-4 <video_core_frame_buffer.Bitmap.getUnalignedU32+0x34>
   12ae8:	04 00 1b e5 	ldr	r0, [r11, #-4]
   12aec:	20 04 a0 e1 	lsr	r0, r0, #8
   12af0:	04 00 0b e5 	str	r0, [r11, #-4]
   12af4:	04 00 1b e5 	ldr	r0, [r11, #-4]
   12af8:	0c 10 1b e5 	ldr	r1, [r11, #-12]
   12afc:	10 20 9d e5 	ldr	r2, [sp, #16]
   12b00:	02 20 81 e0 	add	r2, r1, r2
   12b04:	01 00 52 e1 	cmp	r2, r1
   12b08:	0c 00 8d e5 	str	r0, [sp, #12]
   12b0c:	08 20 8d e5 	str	r2, [sp, #8]
   12b10:	03 00 00 3a 	blo	#12 <video_core_frame_buffer.Bitmap.getUnalignedU32+0x70>
   12b14:	06 00 00 ea 	b	#24 <video_core_frame_buffer.Bitmap.getUnalignedU32+0x80>
   12b18:	04 00 1b e5 	ldr	r0, [r11, #-4]
   12b1c:	0b d0 a0 e1 	mov	sp, r11
   12b20:	00 88 bd e8 	pop	{r11, pc}
   12b24:	d8 0e 04 e3 	movw	r0, #20184
   12b28:	03 00 40 e3 	movt	r0, #3
   12b2c:	00 10 a0 e3 	mov	r1, #0
   12b30:	c3 f9 ff eb 	bl	#-6388 <panic>
   12b34:	08 00 1b e5 	ldr	r0, [r11, #-8]
   12b38:	08 10 9d e5 	ldr	r1, [sp, #8]
   12b3c:	00 00 81 e0 	add	r0, r1, r0
   12b40:	01 00 50 e1 	cmp	r0, r1
   12b44:	04 00 8d e5 	str	r0, [sp, #4]
   12b48:	04 00 00 2a 	bhs	#16 <video_core_frame_buffer.Bitmap.getUnalignedU32+0xac>
   12b4c:	ff ff ff ea 	b	#-4 <video_core_frame_buffer.Bitmap.getUnalignedU32+0x9c>
   12b50:	d8 0e 04 e3 	movw	r0, #20184
   12b54:	03 00 40 e3 	movt	r0, #3
   12b58:	00 10 a0 e3 	mov	r1, #0
   12b5c:	b8 f9 ff eb 	bl	#-6432 <panic>
   12b60:	04 00 9d e5 	ldr	r0, [sp, #4]
   12b64:	00 00 50 e3 	cmp	r0, #0
   12b68:	04 00 00 1a 	bne	#16 <video_core_frame_buffer.Bitmap.getUnalignedU32+0xcc>
   12b6c:	ff ff ff ea 	b	#-4 <video_core_frame_buffer.Bitmap.getUnalignedU32+0xbc>
   12b70:	00 0f 04 e3 	movw	r0, #20224
   12b74:	03 00 40 e3 	movt	r0, #3
   12b78:	00 10 a0 e3 	mov	r1, #0
   12b7c:	b0 f9 ff eb 	bl	#-6464 <panic>
   12b80:	04 00 9d e5 	ldr	r0, [sp, #4]
   12b84:	00 10 d0 e5 	ldrb	r1, [r0]
   12b88:	0c 20 9d e5 	ldr	r2, [sp, #12]
   12b8c:	01 1c 82 e1 	orr	r1, r2, r1, lsl #24
   12b90:	04 10 0b e5 	str	r1, [r11, #-4]
   12b94:	08 10 1b e5 	ldr	r1, [r11, #-8]
   12b98:	01 30 81 e2 	add	r3, r1, #1
   12b9c:	01 00 53 e1 	cmp	r3, r1
   12ba0:	00 30 8d e5 	str	r3, [sp]
   12ba4:	04 00 00 2a 	bhs	#16 <video_core_frame_buffer.Bitmap.getUnalignedU32+0x108>
   12ba8:	ff ff ff ea 	b	#-4 <video_core_frame_buffer.Bitmap.getUnalignedU32+0xf8>
   12bac:	d8 0e 04 e3 	movw	r0, #20184
   12bb0:	03 00 40 e3 	movt	r0, #3
   12bb4:	00 10 a0 e3 	mov	r1, #0
   12bb8:	a1 f9 ff eb 	bl	#-6524 <panic>
   12bbc:	00 00 9d e5 	ldr	r0, [sp]
   12bc0:	08 00 0b e5 	str	r0, [r11, #-8]
   12bc4:	c3 ff ff ea 	b	#-244 <video_core_frame_buffer.Bitmap.getUnalignedU32+0x24>

video_core_frame_buffer.FrameBuffer.drawPixel32:
   12bc8:	00 48 2d e9 	push	{r11, lr}
   12bcc:	0d b0 a0 e1 	mov	r11, sp
   12bd0:	20 d0 4d e2 	sub	sp, sp, #32
   12bd4:	04 00 0b e5 	str	r0, [r11, #-4]
   12bd8:	08 10 0b e5 	str	r1, [r11, #-8]
   12bdc:	0c 20 0b e5 	str	r2, [r11, #-12]
   12be0:	10 30 8d e5 	str	r3, [sp, #16]
   12be4:	08 00 1b e5 	ldr	r0, [r11, #-8]
   12be8:	04 10 1b e5 	ldr	r1, [r11, #-4]
   12bec:	28 10 91 e5 	ldr	r1, [r1, #40]
   12bf0:	00 20 a0 e3 	mov	r2, #0
   12bf4:	01 00 50 e1 	cmp	r0, r1
   12bf8:	01 20 00 23 	movwhs	r2, #1
   12bfc:	01 00 50 e1 	cmp	r0, r1
   12c00:	0c 20 8d e5 	str	r2, [sp, #12]
   12c04:	08 00 00 2a 	bhs	#32 <video_core_frame_buffer.FrameBuffer.drawPixel32+0x64>
   12c08:	ff ff ff ea 	b	#-4 <video_core_frame_buffer.FrameBuffer.drawPixel32+0x44>
   12c0c:	0c 00 1b e5 	ldr	r0, [r11, #-12]
   12c10:	04 10 1b e5 	ldr	r1, [r11, #-4]
   12c14:	24 10 91 e5 	ldr	r1, [r1, #36]
   12c18:	00 20 a0 e3 	mov	r2, #0
   12c1c:	01 00 50 e1 	cmp	r0, r1
   12c20:	01 20 00 23 	movwhs	r2, #1
   12c24:	0c 20 8d e5 	str	r2, [sp, #12]
   12c28:	ff ff ff ea 	b	#-4 <video_core_frame_buffer.FrameBuffer.drawPixel32+0x64>
   12c2c:	0c 00 9d e5 	ldr	r0, [sp, #12]
   12c30:	01 00 10 e3 	tst	r0, #1
   12c34:	06 00 00 0a 	beq	#24 <video_core_frame_buffer.FrameBuffer.drawPixel32+0x8c>
   12c38:	ff ff ff ea 	b	#-4 <video_core_frame_buffer.FrameBuffer.drawPixel32+0x74>
   12c3c:	08 00 1b e5 	ldr	r0, [r11, #-8]
   12c40:	0c 10 1b e5 	ldr	r1, [r11, #-12]
   12c44:	04 20 1b e5 	ldr	r2, [r11, #-4]
   12c48:	24 30 92 e5 	ldr	r3, [r2, #36]
   12c4c:	28 20 92 e5 	ldr	r2, [r2, #40]
   12c50:	07 03 00 eb 	bl	#3100 <arm_assembly_code.panicf.21>
   12c54:	ff ff ff ea 	b	#-4 <video_core_frame_buffer.FrameBuffer.drawPixel32+0x90>
   12c58:	04 00 1b e5 	ldr	r0, [r11, #-4]
   12c5c:	44 10 80 e2 	add	r1, r0, #68
   12c60:	0c 20 1b e5 	ldr	r2, [r11, #-12]
   12c64:	14 00 90 e5 	ldr	r0, [r0, #20]
   12c68:	92 00 82 e0 	umull	r0, r2, r2, r0
   12c6c:	00 00 52 e3 	cmp	r2, #0
   12c70:	08 10 8d e5 	str	r1, [sp, #8]
   12c74:	04 00 8d e5 	str	r0, [sp, #4]
   12c78:	04 00 00 0a 	beq	#16 <video_core_frame_buffer.FrameBuffer.drawPixel32+0xc8>
   12c7c:	ff ff ff ea 	b	#-4 <video_core_frame_buffer.FrameBuffer.drawPixel32+0xb8>
   12c80:	d8 0e 04 e3 	movw	r0, #20184
   12c84:	03 00 40 e3 	movt	r0, #3
   12c88:	00 10 a0 e3 	mov	r1, #0
   12c8c:	6c f9 ff eb 	bl	#-6736 <panic>
   12c90:	01 00 a0 e3 	mov	r0, #1
   12c94:	00 00 50 e3 	cmp	r0, #0
   12c98:	04 00 00 1a 	bne	#16 <video_core_frame_buffer.FrameBuffer.drawPixel32+0xe8>
   12c9c:	ff ff ff ea 	b	#-4 <video_core_frame_buffer.FrameBuffer.drawPixel32+0xd8>
   12ca0:	28 00 05 e3 	movw	r0, #20520
   12ca4:	03 00 40 e3 	movt	r0, #3
   12ca8:	00 10 a0 e3 	mov	r1, #0
   12cac:	64 f9 ff eb 	bl	#-6768 <panic>
   12cb0:	08 00 1b e5 	ldr	r0, [r11, #-8]
   12cb4:	04 10 9d e5 	ldr	r1, [sp, #4]
   12cb8:	21 01 80 e0 	add	r0, r0, r1, lsr #2
   12cbc:	21 01 50 e1 	cmp	r0, r1, lsr #2
   12cc0:	00 00 8d e5 	str	r0, [sp]
   12cc4:	04 00 00 2a 	bhs	#16 <video_core_frame_buffer.FrameBuffer.drawPixel32+0x114>
   12cc8:	ff ff ff ea 	b	#-4 <video_core_frame_buffer.FrameBuffer.drawPixel32+0x104>
   12ccc:	d8 0e 04 e3 	movw	r0, #20184
   12cd0:	03 00 40 e3 	movt	r0, #3
   12cd4:	00 10 a0 e3 	mov	r1, #0
   12cd8:	59 f9 ff eb 	bl	#-6812 <panic>
   12cdc:	08 00 9d e5 	ldr	r0, [sp, #8]
   12ce0:	00 10 90 e5 	ldr	r1, [r0]
   12ce4:	10 20 9d e5 	ldr	r2, [sp, #16]
   12ce8:	00 30 9d e5 	ldr	r3, [sp]
   12cec:	03 21 81 e7 	str	r2, [r1, r3, lsl #2]
   12cf0:	0b d0 a0 e1 	mov	sp, r11
   12cf4:	00 88 bd e8 	pop	{r11, pc}

video_core_frame_buffer.FrameBuffer.color32:
   12cf8:	00 48 2d e9 	push	{r11, lr}
   12cfc:	0d b0 a0 e1 	mov	r11, sp
   12d00:	10 d0 4d e2 	sub	sp, sp, #16
   12d04:	04 00 0b e5 	str	r0, [r11, #-4]
   12d08:	03 00 d1 e5 	ldrb	r0, [r1, #3]
   12d0c:	ff 20 60 e2 	rsb	r2, r0, #255
   12d10:	ff 30 a0 e3 	mov	r3, #255
   12d14:	00 00 53 e1 	cmp	r3, r0
   12d18:	08 10 8d e5 	str	r1, [sp, #8]
   12d1c:	04 20 8d e5 	str	r2, [sp, #4]
   12d20:	04 00 00 2a 	bhs	#16 <video_core_frame_buffer.FrameBuffer.color32+0x40>
   12d24:	ff ff ff ea 	b	#-4 <video_core_frame_buffer.FrameBuffer.color32+0x30>
   12d28:	d8 0e 04 e3 	movw	r0, #20184
   12d2c:	03 00 40 e3 	movt	r0, #3
   12d30:	00 10 a0 e3 	mov	r1, #0
   12d34:	42 f9 ff eb 	bl	#-6904 <panic>
   12d38:	04 00 9d e5 	ldr	r0, [sp, #4]
   12d3c:	00 1c a0 e1 	lsl	r1, r0, #24
   12d40:	08 20 9d e5 	ldr	r2, [sp, #8]
   12d44:	00 30 d2 e5 	ldrb	r3, [r2]
   12d48:	01 c0 d2 e5 	ldrb	r12, [r2, #1]
   12d4c:	02 e0 d2 e5 	ldrb	lr, [r2, #2]
   12d50:	03 18 81 e1 	orr	r1, r1, r3, lsl #16
   12d54:	0c 14 81 e1 	orr	r1, r1, r12, lsl #8
   12d58:	0e 00 81 e1 	orr	r0, r1, lr
   12d5c:	0b d0 a0 e1 	mov	sp, r11
   12d60:	00 88 bd e8 	pop	{r11, pc}

arm_assembly_code.seconds:
   12d64:	00 48 2d e9 	push	{r11, lr}
   12d68:	0d b0 a0 e1 	mov	r11, sp
   12d6c:	08 d0 4d e2 	sub	sp, sp, #8
   12d70:	d8 02 00 eb 	bl	#2912 <arm_assembly_code.cntpct32>
   12d74:	01 10 a0 e3 	mov	r1, #1
   12d78:	00 00 51 e3 	cmp	r1, #0
   12d7c:	04 00 8d e5 	str	r0, [sp, #4]
   12d80:	04 00 00 1a 	bne	#16 <arm_assembly_code.seconds+0x34>
   12d84:	ff ff ff ea 	b	#-4 <arm_assembly_code.seconds+0x24>
   12d88:	28 00 05 e3 	movw	r0, #20520
   12d8c:	03 00 40 e3 	movt	r0, #3
   12d90:	00 10 a0 e3 	mov	r1, #0
   12d94:	2a f9 ff eb 	bl	#-7000 <panic>
   12d98:	85 0d 01 e3 	movw	r0, #7557
   12d9c:	d9 0f 46 e3 	movt	r0, #28633
   12da0:	04 10 9d e5 	ldr	r1, [sp, #4]
   12da4:	91 00 82 e0 	umull	r0, r2, r1, r0
   12da8:	a2 2b a0 e1 	lsr	r2, r2, #23
   12dac:	00 00 8d e5 	str	r0, [sp]
   12db0:	02 00 a0 e1 	mov	r0, r2
   12db4:	0b d0 a0 e1 	mov	sp, r11
   12db8:	00 88 bd e8 	pop	{r11, pc}

serial.log.9:
   12dbc:	00 48 2d e9 	push	{r11, lr}
   12dc0:	0d b0 a0 e1 	mov	r11, sp
   12dc4:	90 d0 4d e2 	sub	sp, sp, #144
   12dc8:	00 00 a0 e3 	mov	r0, #0
   12dcc:	04 00 8d e5 	str	r0, [sp, #4]
   12dd0:	10 00 8d e2 	add	r0, sp, #16
   12dd4:	08 00 8d e5 	str	r0, [sp, #8]
   12dd8:	20 00 a0 e3 	mov	r0, #32
   12ddc:	0c 00 8d e5 	str	r0, [sp, #12]
   12de0:	3c 14 02 e3 	movw	r1, #9276
   12de4:	01 10 40 e3 	movt	r1, #1
   12de8:	04 00 8d e2 	add	r0, sp, #4
   12dec:	bb 02 00 eb 	bl	#2796 <std.fmt.format.22>
   12df0:	b2 00 cd e1 	strh	r0, [sp, #2]
   12df4:	0b d0 a0 e1 	mov	sp, r11
   12df8:	00 88 bd e8 	pop	{r11, pc}

serial.writeText:
   12dfc:	00 48 2d e9 	push	{r11, lr}
   12e00:	0d b0 a0 e1 	mov	r11, sp
   12e04:	18 d0 4d e2 	sub	sp, sp, #24
   12e08:	00 10 a0 e3 	mov	r1, #0
   12e0c:	04 10 0b e5 	str	r1, [r11, #-4]
   12e10:	04 10 90 e5 	ldr	r1, [r0, #4]
   12e14:	08 00 0b e5 	str	r0, [r11, #-8]
   12e18:	0c 10 8d e5 	str	r1, [sp, #12]
   12e1c:	ff ff ff ea 	b	#-4 <serial.writeText+0x24>
   12e20:	04 00 1b e5 	ldr	r0, [r11, #-4]
   12e24:	0c 10 9d e5 	ldr	r1, [sp, #12]
   12e28:	01 00 50 e1 	cmp	r0, r1
   12e2c:	08 00 8d e5 	str	r0, [sp, #8]
   12e30:	15 00 00 2a 	bhs	#84 <serial.writeText+0x90>
   12e34:	ff ff ff ea 	b	#-4 <serial.writeText+0x3c>
   12e38:	08 00 1b e5 	ldr	r0, [r11, #-8]
   12e3c:	00 10 90 e5 	ldr	r1, [r0]
   12e40:	08 20 9d e5 	ldr	r2, [sp, #8]
   12e44:	02 30 f1 e7 	ldrb	r3, [r1, r2]!
   12e48:	0a 00 53 e3 	cmp	r3, #10
   12e4c:	04 10 8d e5 	str	r1, [sp, #4]
   12e50:	04 00 00 0a 	beq	#16 <serial.writeText+0x6c>
   12e54:	ff ff ff ea 	b	#-4 <serial.writeText+0x5c>
   12e58:	04 00 9d e5 	ldr	r0, [sp, #4]
   12e5c:	00 00 d0 e5 	ldrb	r0, [r0]
   12e60:	d9 00 00 eb 	bl	#868 <serial.writeByte>
   12e64:	04 00 00 ea 	b	#16 <serial.writeText+0x80>
   12e68:	0d 00 a0 e3 	mov	r0, #13
   12e6c:	d6 00 00 eb 	bl	#856 <serial.writeByte>
   12e70:	0a 00 a0 e3 	mov	r0, #10
   12e74:	d4 00 00 eb 	bl	#848 <serial.writeByte>
   12e78:	ff ff ff ea 	b	#-4 <serial.writeText+0x80>
   12e7c:	08 00 9d e5 	ldr	r0, [sp, #8]
   12e80:	01 10 80 e2 	add	r1, r0, #1
   12e84:	04 10 0b e5 	str	r1, [r11, #-4]
   12e88:	e4 ff ff ea 	b	#-112 <serial.writeText+0x24>
   12e8c:	0b d0 a0 e1 	mov	sp, r11
   12e90:	00 88 bd e8 	pop	{r11, pc}

serial.decimal:
   12e94:	00 48 2d e9 	push	{r11, lr}
   12e98:	0d b0 a0 e1 	mov	r11, sp
   12e9c:	b8 d0 4d e2 	sub	sp, sp, #184
   12ea0:	3c 00 8d e5 	str	r0, [sp, #60]
   12ea4:	54 00 8d e2 	add	r0, sp, #84
   12ea8:	64 10 a0 e3 	mov	r1, #100
   12eac:	aa 20 a0 e3 	mov	r2, #170
   12eb0:	38 10 8d e5 	str	r1, [sp, #56]
   12eb4:	0a 0e 00 eb 	bl	#14376 <__aeabi_memset8>
   12eb8:	38 00 9d e5 	ldr	r0, [sp, #56]
   12ebc:	50 00 8d e5 	str	r0, [sp, #80]
   12ec0:	3c 10 9d e5 	ldr	r1, [sp, #60]
   12ec4:	4c 10 8d e5 	str	r1, [sp, #76]
   12ec8:	ff ff ff ea 	b	#-4 <serial.decimal+0x38>
   12ecc:	50 00 9d e5 	ldr	r0, [sp, #80]
   12ed0:	00 00 50 e3 	cmp	r0, #0
   12ed4:	1d 00 00 0a 	beq	#116 <serial.decimal+0xbc>
   12ed8:	ff ff ff ea 	b	#-4 <serial.decimal+0x48>
   12edc:	50 00 9d e5 	ldr	r0, [sp, #80]
   12ee0:	01 10 40 e2 	sub	r1, r0, #1
   12ee4:	01 00 50 e3 	cmp	r0, #1
   12ee8:	34 10 8d e5 	str	r1, [sp, #52]
   12eec:	1c 00 00 3a 	blo	#112 <serial.decimal+0xd0>
   12ef0:	1f 00 00 ea 	b	#124 <serial.decimal+0xe0>
   12ef4:	4b 00 dd e5 	ldrb	r0, [sp, #75]
   12ef8:	30 00 80 e2 	add	r0, r0, #48
   12efc:	70 10 ef e6 	uxtb	r1, r0
   12f00:	00 00 51 e1 	cmp	r1, r0
   12f04:	30 00 8d e5 	str	r0, [sp, #48]
   12f08:	5f 00 00 1a 	bne	#380 <serial.decimal+0x1f8>
   12f0c:	62 00 00 ea 	b	#392 <serial.decimal+0x208>
   12f10:	4b 00 dd e5 	ldrb	r0, [sp, #75]
   12f14:	0a 00 40 e2 	sub	r0, r0, #10
   12f18:	70 10 ef e6 	uxtb	r1, r0
   12f1c:	00 00 51 e1 	cmp	r1, r0
   12f20:	2c 00 8d e5 	str	r0, [sp, #44]
   12f24:	60 00 00 1a 	bne	#384 <serial.decimal+0x218>
   12f28:	63 00 00 ea 	b	#396 <serial.decimal+0x228>
   12f2c:	4c 00 9d e5 	ldr	r0, [sp, #76]
   12f30:	00 10 a0 e3 	mov	r1, #0
   12f34:	00 00 51 e3 	cmp	r1, #0
   12f38:	28 00 8d e5 	str	r0, [sp, #40]
   12f3c:	6f 00 00 1a 	bne	#444 <serial.decimal+0x26c>
   12f40:	72 00 00 ea 	b	#456 <serial.decimal+0x27c>
   12f44:	01 00 00 ea 	b	#4 <serial.decimal+0xbc>
   12f48:	ff ff ff ea 	b	#-4 <serial.decimal+0xb8>
   12f4c:	de ff ff ea 	b	#-136 <serial.decimal+0x38>
   12f50:	50 00 9d e5 	ldr	r0, [sp, #80]
   12f54:	65 00 50 e3 	cmp	r0, #101
   12f58:	24 00 8d e5 	str	r0, [sp, #36]
   12f5c:	79 00 00 3a 	blo	#484 <serial.decimal+0x2b4>
   12f60:	74 00 00 ea 	b	#464 <serial.decimal+0x2a4>
   12f64:	d8 0e 04 e3 	movw	r0, #20184
   12f68:	03 00 40 e3 	movt	r0, #3
   12f6c:	00 10 a0 e3 	mov	r1, #0
   12f70:	b3 f8 ff eb 	bl	#-7476 <panic>
   12f74:	34 00 9d e5 	ldr	r0, [sp, #52]
   12f78:	50 00 8d e5 	str	r0, [sp, #80]
   12f7c:	4c 10 9d e5 	ldr	r1, [sp, #76]
   12f80:	01 20 a0 e1 	mov	r2, r1
   12f84:	01 30 a0 e3 	mov	r3, #1
   12f88:	00 00 53 e3 	cmp	r3, #0
   12f8c:	20 10 8d e5 	str	r1, [sp, #32]
   12f90:	1c 20 8d e5 	str	r2, [sp, #28]
   12f94:	04 00 00 1a 	bne	#16 <serial.decimal+0x118>
   12f98:	ff ff ff ea 	b	#-4 <serial.decimal+0x108>
   12f9c:	28 00 05 e3 	movw	r0, #20520
   12fa0:	03 00 40 e3 	movt	r0, #3
   12fa4:	00 10 a0 e3 	mov	r1, #0
   12fa8:	a5 f8 ff eb 	bl	#-7532 <panic>
   12fac:	cd 0c 0c e3 	movw	r0, #52429
   12fb0:	cc 0c 4c e3 	movt	r0, #52428
   12fb4:	20 10 9d e5 	ldr	r1, [sp, #32]
   12fb8:	91 00 82 e0 	umull	r0, r2, r1, r0
   12fbc:	a2 21 a0 e1 	lsr	r2, r2, #3
   12fc0:	0a 30 a0 e3 	mov	r3, #10
   12fc4:	93 22 83 e0 	umull	r2, r3, r3, r2
   12fc8:	00 00 53 e3 	cmp	r3, #0
   12fcc:	18 20 8d e5 	str	r2, [sp, #24]
   12fd0:	04 00 00 0a 	beq	#16 <serial.decimal+0x154>
   12fd4:	ff ff ff ea 	b	#-4 <serial.decimal+0x144>
   12fd8:	d8 0e 04 e3 	movw	r0, #20184
   12fdc:	03 00 40 e3 	movt	r0, #3
   12fe0:	00 10 a0 e3 	mov	r1, #0
   12fe4:	96 f8 ff eb 	bl	#-7592 <panic>
   12fe8:	1c 00 9d e5 	ldr	r0, [sp, #28]
   12fec:	18 10 9d e5 	ldr	r1, [sp, #24]
   12ff0:	01 20 40 e0 	sub	r2, r0, r1
   12ff4:	01 00 50 e1 	cmp	r0, r1
   12ff8:	14 20 8d e5 	str	r2, [sp, #20]
   12ffc:	04 00 00 2a 	bhs	#16 <serial.decimal+0x180>
   13000:	ff ff ff ea 	b	#-4 <serial.decimal+0x170>
   13004:	d8 0e 04 e3 	movw	r0, #20184
   13008:	03 00 40 e3 	movt	r0, #3
   1300c:	00 10 a0 e3 	mov	r1, #0
   13010:	8b f8 ff eb 	bl	#-7636 <panic>
   13014:	14 00 9d e5 	ldr	r0, [sp, #20]
   13018:	14 10 9d e5 	ldr	r1, [sp, #20]
   1301c:	71 20 ef e6 	uxtb	r2, r1
   13020:	02 00 51 e1 	cmp	r1, r2
   13024:	10 00 8d e5 	str	r0, [sp, #16]
   13028:	07 00 00 1a 	bne	#28 <serial.decimal+0x1b8>
   1302c:	ff ff ff ea 	b	#-4 <serial.decimal+0x19c>
   13030:	10 00 9d e5 	ldr	r0, [sp, #16]
   13034:	4b 00 cd e5 	strb	r0, [sp, #75]
   13038:	50 10 9d e5 	ldr	r1, [sp, #80]
   1303c:	64 00 51 e3 	cmp	r1, #100
   13040:	0c 10 8d e5 	str	r1, [sp, #12]
   13044:	08 00 00 3a 	blo	#32 <serial.decimal+0x1d8>
   13048:	03 00 00 ea 	b	#12 <serial.decimal+0x1c8>
   1304c:	68 00 05 e3 	movw	r0, #20584
   13050:	03 00 40 e3 	movt	r0, #3
   13054:	00 10 a0 e3 	mov	r1, #0
   13058:	79 f8 ff eb 	bl	#-7708 <panic>
   1305c:	84 00 05 e3 	movw	r0, #20612
   13060:	03 00 40 e3 	movt	r0, #3
   13064:	00 10 a0 e3 	mov	r1, #0
   13068:	75 f8 ff eb 	bl	#-7724 <panic>
   1306c:	54 00 8d e2 	add	r0, sp, #84
   13070:	0c 10 9d e5 	ldr	r1, [sp, #12]
   13074:	01 00 80 e0 	add	r0, r0, r1
   13078:	4b 20 dd e5 	ldrb	r2, [sp, #75]
   1307c:	0a 00 52 e3 	cmp	r2, #10
   13080:	08 00 8d e5 	str	r0, [sp, #8]
   13084:	9a ff ff 3a 	blo	#-408 <serial.decimal+0x60>
   13088:	a0 ff ff ea 	b	#-384 <serial.decimal+0x7c>
   1308c:	d8 0e 04 e3 	movw	r0, #20184
   13090:	03 00 40 e3 	movt	r0, #3
   13094:	00 10 a0 e3 	mov	r1, #0
   13098:	69 f8 ff eb 	bl	#-7772 <panic>
   1309c:	30 00 9d e5 	ldr	r0, [sp, #48]
   130a0:	08 10 9d e5 	ldr	r1, [sp, #8]
   130a4:	00 00 c1 e5 	strb	r0, [r1]
   130a8:	9f ff ff ea 	b	#-388 <serial.decimal+0x98>
   130ac:	d8 0e 04 e3 	movw	r0, #20184
   130b0:	03 00 40 e3 	movt	r0, #3
   130b4:	00 10 a0 e3 	mov	r1, #0
   130b8:	61 f8 ff eb 	bl	#-7804 <panic>
   130bc:	41 00 a0 e3 	mov	r0, #65
   130c0:	2c 10 9d e5 	ldr	r1, [sp, #44]
   130c4:	71 00 e0 e6 	uxtab	r0, r0, r1
   130c8:	70 20 ef e6 	uxtb	r2, r0
   130cc:	00 30 a0 e1 	mov	r3, r0
   130d0:	00 00 52 e1 	cmp	r2, r0
   130d4:	04 30 8d e5 	str	r3, [sp, #4]
   130d8:	04 00 00 0a 	beq	#16 <serial.decimal+0x25c>
   130dc:	ff ff ff ea 	b	#-4 <serial.decimal+0x24c>
   130e0:	d8 0e 04 e3 	movw	r0, #20184
   130e4:	03 00 40 e3 	movt	r0, #3
   130e8:	00 10 a0 e3 	mov	r1, #0
   130ec:	54 f8 ff eb 	bl	#-7856 <panic>
   130f0:	04 00 9d e5 	ldr	r0, [sp, #4]
   130f4:	08 10 9d e5 	ldr	r1, [sp, #8]
   130f8:	00 00 c1 e5 	strb	r0, [r1]
   130fc:	8a ff ff ea 	b	#-472 <serial.decimal+0x98>
   13100:	28 00 05 e3 	movw	r0, #20520
   13104:	03 00 40 e3 	movt	r0, #3
   13108:	00 10 a0 e3 	mov	r1, #0
   1310c:	4c f8 ff eb 	bl	#-7888 <panic>
   13110:	cd 0c 0c e3 	movw	r0, #52429
   13114:	cc 0c 4c e3 	movt	r0, #52428
   13118:	28 10 9d e5 	ldr	r1, [sp, #40]
   1311c:	91 00 82 e0 	umull	r0, r2, r1, r0
   13120:	a2 21 a0 e1 	lsr	r2, r2, #3
   13124:	4c 20 8d e5 	str	r2, [sp, #76]
   13128:	4c 20 9d e5 	ldr	r2, [sp, #76]
   1312c:	00 00 52 e3 	cmp	r2, #0
   13130:	83 ff ff 0a 	beq	#-500 <serial.decimal+0xb0>
   13134:	83 ff ff ea 	b	#-500 <serial.decimal+0xb4>
   13138:	84 00 05 e3 	movw	r0, #20612
   1313c:	03 00 40 e3 	movt	r0, #3
   13140:	00 10 a0 e3 	mov	r1, #0
   13144:	3e f8 ff eb 	bl	#-7944 <panic>
   13148:	54 00 8d e2 	add	r0, sp, #84
   1314c:	24 10 9d e5 	ldr	r1, [sp, #36]
   13150:	01 00 80 e0 	add	r0, r0, r1
   13154:	40 00 8d e5 	str	r0, [sp, #64]
   13158:	64 00 61 e2 	rsb	r0, r1, #100
   1315c:	44 00 8d e5 	str	r0, [sp, #68]
   13160:	40 00 8d e2 	add	r0, sp, #64
   13164:	24 ff ff eb 	bl	#-880 <serial.writeText>
   13168:	0b d0 a0 e1 	mov	sp, r11
   1316c:	00 88 bd e8 	pop	{r11, pc}

serial.isReadByteReady:
   13170:	00 48 2d e9 	push	{r11, lr}
   13174:	0d b0 a0 e1 	mov	r11, sp
   13178:	18 00 01 e3 	movw	r0, #4120
   1317c:	20 00 40 e3 	movt	r0, #32
   13180:	e5 01 00 eb 	bl	#1940 <arm_assembly_code.io>
   13184:	00 00 90 e5 	ldr	r0, [r0]
   13188:	10 00 00 e2 	and	r0, r0, #16
   1318c:	01 10 a0 e3 	mov	r1, #1
   13190:	20 02 21 e0 	eor	r0, r1, r0, lsr #4
   13194:	00 88 bd e8 	pop	{r11, pc}

serial.readByteBlocking:
   13198:	00 48 2d e9 	push	{r11, lr}
   1319c:	0d b0 a0 e1 	mov	r11, sp
   131a0:	ff ff ff ea 	b	#-4 <serial.readByteBlocking+0xc>
   131a4:	f1 ff ff eb 	bl	#-60 <serial.isReadByteReady>
   131a8:	01 00 10 e3 	tst	r0, #1
   131ac:	01 00 00 1a 	bne	#4 <serial.readByteBlocking+0x20>
   131b0:	ff ff ff ea 	b	#-4 <serial.readByteBlocking+0x1c>
   131b4:	fa ff ff ea 	b	#-24 <serial.readByteBlocking+0xc>
   131b8:	00 00 01 e3 	movw	r0, #4096
   131bc:	20 00 40 e3 	movt	r0, #32
   131c0:	d5 01 00 eb 	bl	#1876 <arm_assembly_code.io>
   131c4:	00 00 90 e5 	ldr	r0, [r0]
   131c8:	00 88 bd e8 	pop	{r11, pc}

serial.writeByte:
   131cc:	04 d0 4d e2 	sub	sp, sp, #4
   131d0:	00 10 a0 e1 	mov	r1, r0
   131d4:	03 00 cd e5 	strb	r0, [sp, #3]
   131d8:	03 00 dd e5 	ldrb	r0, [sp, #3]
   131dc:	00 20 01 e3 	movw	r2, #4096
   131e0:	20 2f 43 e3 	movt	r2, #16160
   131e4:	00 00 82 e5 	str	r0, [r2]
   131e8:	04 d0 8d e2 	add	sp, sp, #4
   131ec:	1e ff 2f e1 	bx	lr

serial.log.10:
   131f0:	00 48 2d e9 	push	{r11, lr}
   131f4:	0d b0 a0 e1 	mov	r11, sp
   131f8:	98 d0 4d e2 	sub	sp, sp, #152
   131fc:	00 10 a0 e3 	mov	r1, #0
   13200:	0c 10 8d e5 	str	r1, [sp, #12]
   13204:	18 10 8d e2 	add	r1, sp, #24
   13208:	10 10 8d e5 	str	r1, [sp, #16]
   1320c:	20 10 a0 e3 	mov	r1, #32
   13210:	14 10 8d e5 	str	r1, [sp, #20]
   13214:	04 00 8d e5 	str	r0, [sp, #4]
   13218:	04 20 9d e5 	ldr	r2, [sp, #4]
   1321c:	3c 14 02 e3 	movw	r1, #9276
   13220:	01 10 40 e3 	movt	r1, #1
   13224:	0c 00 8d e2 	add	r0, sp, #12
   13228:	d4 01 00 eb 	bl	#1872 <std.fmt.format.23>
   1322c:	ba 00 cd e1 	strh	r0, [sp, #10]
   13230:	0b d0 a0 e1 	mov	sp, r11
   13234:	00 88 bd e8 	pop	{r11, pc}

arm_assembly_code.panicf.11:
   13238:	00 48 2d e9 	push	{r11, lr}
   1323c:	0d b0 a0 e1 	mov	r11, sp
   13240:	70 00 04 e3 	movw	r0, #16496
   13244:	05 00 40 e3 	movt	r0, #5
   13248:	00 00 d0 e5 	ldrb	r0, [r0]
   1324c:	01 00 50 e3 	cmp	r0, #1
   13250:	01 00 00 1a 	bne	#4 <arm_assembly_code.panicf.11+0x24>
   13254:	ff ff ff ea 	b	#-4 <arm_assembly_code.panicf.11+0x20>
   13258:	3b fc ff eb 	bl	#-3860 <arm_assembly_code.hang>
   1325c:	ff ff ff ea 	b	#-4 <arm_assembly_code.panicf.11+0x28>
   13260:	70 00 04 e3 	movw	r0, #16496
   13264:	05 00 40 e3 	movt	r0, #5
   13268:	01 10 a0 e3 	mov	r1, #1
   1326c:	00 10 c0 e5 	strb	r1, [r0]
   13270:	e6 01 00 eb 	bl	#1944 <serial.log.24>
   13274:	4e fc ff eb 	bl	#-3784 <arm_assembly_code.hang.5>

serial.log.12:
   13278:	00 48 2d e9 	push	{r11, lr}
   1327c:	0d b0 a0 e1 	mov	r11, sp
   13280:	90 d0 4d e2 	sub	sp, sp, #144
   13284:	00 00 a0 e3 	mov	r0, #0
   13288:	04 00 8d e5 	str	r0, [sp, #4]
   1328c:	10 00 8d e2 	add	r0, sp, #16
   13290:	08 00 8d e5 	str	r0, [sp, #8]
   13294:	20 00 a0 e3 	mov	r0, #32
   13298:	0c 00 8d e5 	str	r0, [sp, #12]
   1329c:	3c 14 02 e3 	movw	r1, #9276
   132a0:	01 10 40 e3 	movt	r1, #1
   132a4:	04 00 8d e2 	add	r0, sp, #4
   132a8:	e8 01 00 eb 	bl	#1952 <std.fmt.format.25>
   132ac:	b2 00 cd e1 	strh	r0, [sp, #2]
   132b0:	0b d0 a0 e1 	mov	sp, r11
   132b4:	00 88 bd e8 	pop	{r11, pc}

serial.log.13:
   132b8:	00 48 2d e9 	push	{r11, lr}
   132bc:	0d b0 a0 e1 	mov	r11, sp
   132c0:	90 d0 4d e2 	sub	sp, sp, #144
   132c4:	00 00 a0 e3 	mov	r0, #0
   132c8:	04 00 8d e5 	str	r0, [sp, #4]
   132cc:	10 00 8d e2 	add	r0, sp, #16
   132d0:	08 00 8d e5 	str	r0, [sp, #8]
   132d4:	20 00 a0 e3 	mov	r0, #32
   132d8:	0c 00 8d e5 	str	r0, [sp, #12]
   132dc:	3c 14 02 e3 	movw	r1, #9276
   132e0:	01 10 40 e3 	movt	r1, #1
   132e4:	04 00 8d e2 	add	r0, sp, #4
   132e8:	e7 01 00 eb 	bl	#1948 <std.fmt.format.26>
   132ec:	b2 00 cd e1 	strh	r0, [sp, #2]
   132f0:	0b d0 a0 e1 	mov	sp, r11
   132f4:	00 88 bd e8 	pop	{r11, pc}

arm_assembly_code.spsr:
   132f8:	04 d0 4d e2 	sub	sp, sp, #4
   132fc:	00 00 4f e1 	mrs	r0, spsr
   13300:	00 00 8d e5 	str	r0, [sp]
   13304:	00 00 9d e5 	ldr	r0, [sp]
   13308:	04 d0 8d e2 	add	sp, sp, #4
   1330c:	1e ff 2f e1 	bx	lr

arm_assembly_code.cpsr:
   13310:	04 d0 4d e2 	sub	sp, sp, #4
   13314:	00 00 0f e1 	mrs	r0, apsr
   13318:	00 00 8d e5 	str	r0, [sp]
   1331c:	00 00 9d e5 	ldr	r0, [sp]
   13320:	04 d0 8d e2 	add	sp, sp, #4
   13324:	1e ff 2f e1 	bx	lr

arm_assembly_code.sctlr:
   13328:	04 d0 4d e2 	sub	sp, sp, #4
   1332c:	10 0f 11 ee 	mrc	p15, #0, r0, c1, c0, #0
   13330:	00 00 8d e5 	str	r0, [sp]
   13334:	00 00 9d e5 	ldr	r0, [sp]
   13338:	04 d0 8d e2 	add	sp, sp, #4
   1333c:	1e ff 2f e1 	bx	lr

arm_assembly_code.hang.14:
   13340:	00 48 2d e9 	push	{r11, lr}
   13344:	0d b0 a0 e1 	mov	r11, sp
   13348:	f4 01 00 eb 	bl	#2000 <serial.log.28>
   1334c:	ff ff ff ea 	b	#-4 <arm_assembly_code.hang.14+0x10>
   13350:	ff ff ff ea 	b	#-4 <arm_assembly_code.hang.14+0x14>
   13354:	10 00 00 eb 	bl	#64 <arm_assembly_code.v7.wfe>
   13358:	fc ff ff ea 	b	#-16 <arm_assembly_code.hang.14+0x10>

serial.log.15:
   1335c:	00 48 2d e9 	push	{r11, lr}
   13360:	0d b0 a0 e1 	mov	r11, sp
   13364:	90 d0 4d e2 	sub	sp, sp, #144
   13368:	00 00 a0 e3 	mov	r0, #0
   1336c:	04 00 8d e5 	str	r0, [sp, #4]
   13370:	10 00 8d e2 	add	r0, sp, #16
   13374:	08 00 8d e5 	str	r0, [sp, #8]
   13378:	20 00 a0 e3 	mov	r0, #32
   1337c:	0c 00 8d e5 	str	r0, [sp, #12]
   13380:	3c 14 02 e3 	movw	r1, #9276
   13384:	01 10 40 e3 	movt	r1, #1
   13388:	04 00 8d e2 	add	r0, sp, #4
   1338c:	f3 01 00 eb 	bl	#1996 <std.fmt.format.29>
   13390:	b2 00 cd e1 	strh	r0, [sp, #2]
   13394:	0b d0 a0 e1 	mov	sp, r11
   13398:	00 88 bd e8 	pop	{r11, pc}

arm_assembly_code.v7.wfe:
   1339c:	02 f0 20 e3 	wfe
   133a0:	1e ff 2f e1 	bx	lr

std.fmt.format.16:
   133a4:	00 48 2d e9 	push	{r11, lr}
   133a8:	0d b0 a0 e1 	mov	r11, sp
   133ac:	20 d0 4d e2 	sub	sp, sp, #32
   133b0:	0c 10 0b e5 	str	r1, [r11, #-12]
   133b4:	0c 10 1b e5 	ldr	r1, [r11, #-12]
   133b8:	b0 30 05 e3 	movw	r3, #20656
   133bc:	03 30 40 e3 	movt	r3, #3
   133c0:	10 00 8d e5 	str	r0, [sp, #16]
   133c4:	0c 10 8d e5 	str	r1, [sp, #12]
   133c8:	03 10 a0 e1 	mov	r1, r3
   133cc:	0c 30 9d e5 	ldr	r3, [sp, #12]
   133d0:	08 20 8d e5 	str	r2, [sp, #8]
   133d4:	33 ff 2f e1 	blx	r3
   133d8:	b2 00 4b e1 	strh	r0, [r11, #-2]
   133dc:	0c 30 1b e5 	ldr	r3, [r11, #-12]
   133e0:	0d 00 a0 e1 	mov	r0, sp
   133e4:	03 10 a0 e3 	mov	r1, #3
   133e8:	00 10 80 e5 	str	r1, [r0]
   133ec:	b8 20 05 e3 	movw	r2, #20664
   133f0:	03 20 40 e3 	movt	r2, #3
   133f4:	10 00 9d e5 	ldr	r0, [sp, #16]
   133f8:	08 10 9d e5 	ldr	r1, [sp, #8]
   133fc:	e6 01 00 eb 	bl	#1944 <std.fmt.formatType.30>
   13400:	b4 00 4b e1 	strh	r0, [r11, #-4]
   13404:	0c 00 1b e5 	ldr	r0, [r11, #-12]
   13408:	cc 10 05 e3 	movw	r1, #20684
   1340c:	03 10 40 e3 	movt	r1, #3
   13410:	10 20 9d e5 	ldr	r2, [sp, #16]
   13414:	04 00 8d e5 	str	r0, [sp, #4]
   13418:	02 00 a0 e1 	mov	r0, r2
   1341c:	04 30 9d e5 	ldr	r3, [sp, #4]
   13420:	33 ff 2f e1 	blx	r3
   13424:	b6 00 4b e1 	strh	r0, [r11, #-6]
   13428:	00 00 a0 e3 	mov	r0, #0
   1342c:	0b d0 a0 e1 	mov	sp, r11
   13430:	00 88 bd e8 	pop	{r11, pc}

serial.log.17:
   13434:	00 48 2d e9 	push	{r11, lr}
   13438:	0d b0 a0 e1 	mov	r11, sp
   1343c:	90 d0 4d e2 	sub	sp, sp, #144
   13440:	00 00 a0 e3 	mov	r0, #0
   13444:	04 00 8d e5 	str	r0, [sp, #4]
   13448:	10 00 8d e2 	add	r0, sp, #16
   1344c:	08 00 8d e5 	str	r0, [sp, #8]
   13450:	20 00 a0 e3 	mov	r0, #32
   13454:	0c 00 8d e5 	str	r0, [sp, #12]
   13458:	3c 14 02 e3 	movw	r1, #9276
   1345c:	01 10 40 e3 	movt	r1, #1
   13460:	04 00 8d e2 	add	r0, sp, #4
   13464:	e2 01 00 eb 	bl	#1928 <std.fmt.format.31>
   13468:	b2 00 cd e1 	strh	r0, [sp, #2]
   1346c:	0b d0 a0 e1 	mov	sp, r11
   13470:	00 88 bd e8 	pop	{r11, pc}

gpio.setPinPull:
   13474:	00 48 2d e9 	push	{r11, lr}
   13478:	0d b0 a0 e1 	mov	r11, sp
   1347c:	10 d0 4d e2 	sub	sp, sp, #16
   13480:	01 20 a0 e1 	mov	r2, r1
   13484:	04 00 0b e5 	str	r0, [r11, #-4]
   13488:	03 00 01 e2 	and	r0, r1, #3
   1348c:	05 00 4b e5 	strb	r0, [r11, #-5]
   13490:	05 00 5b e5 	ldrb	r0, [r11, #-5]
   13494:	94 10 00 e3 	movw	r1, #148
   13498:	20 1f 43 e3 	movt	r1, #16160
   1349c:	00 00 81 e5 	str	r0, [r1]
   134a0:	96 00 a0 e3 	mov	r0, #150
   134a4:	04 00 8d e5 	str	r0, [sp, #4]
   134a8:	00 20 8d e5 	str	r2, [sp]
   134ac:	df 01 00 eb 	bl	#1916 <arm_assembly_code.delay>
   134b0:	04 00 1b e5 	ldr	r0, [r11, #-4]
   134b4:	01 10 a0 e3 	mov	r1, #1
   134b8:	f8 01 00 eb 	bl	#2016 <gpio.IoArray.write>
   134bc:	04 00 9d e5 	ldr	r0, [sp, #4]
   134c0:	da 01 00 eb 	bl	#1896 <arm_assembly_code.delay>
   134c4:	04 00 1b e5 	ldr	r0, [r11, #-4]
   134c8:	00 10 a0 e3 	mov	r1, #0
   134cc:	f3 01 00 eb 	bl	#1996 <gpio.IoArray.write>
   134d0:	0b d0 a0 e1 	mov	sp, r11
   134d4:	00 88 bd e8 	pop	{r11, pc}

gpio.setPinFunction:
   134d8:	00 48 2d e9 	push	{r11, lr}
   134dc:	0d b0 a0 e1 	mov	r11, sp
   134e0:	08 d0 4d e2 	sub	sp, sp, #8
   134e4:	04 00 8d e5 	str	r0, [sp, #4]
   134e8:	00 10 8d e5 	str	r1, [sp]
   134ec:	04 00 9d e5 	ldr	r0, [sp, #4]
   134f0:	00 10 9d e5 	ldr	r1, [sp]
   134f4:	4f 02 00 eb 	bl	#2364 <gpio.IoArray.write.32>
   134f8:	0b d0 a0 e1 	mov	sp, r11
   134fc:	00 88 bd e8 	pop	{r11, pc}

std.fmt.formatType:
   13500:	00 48 2d e9 	push	{r11, lr}
   13504:	0d b0 a0 e1 	mov	r11, sp
   13508:	18 d0 4d e2 	sub	sp, sp, #24
   1350c:	08 c0 9b e5 	ldr	r12, [r11, #8]
   13510:	0c 30 8d e5 	str	r3, [sp, #12]
   13514:	0c 30 9d e5 	ldr	r3, [sp, #12]
   13518:	08 10 0b e5 	str	r1, [r11, #-8]
   1351c:	1b 10 a0 e3 	mov	r1, #27
   13520:	04 10 0b e5 	str	r1, [r11, #-4]
   13524:	08 10 4b e2 	sub	r1, r11, #8
   13528:	08 00 8d e5 	str	r0, [sp, #8]
   1352c:	04 c0 8d e5 	str	r12, [sp, #4]
   13530:	ac 02 00 eb 	bl	#2736 <std.fmt.formatText>
   13534:	00 10 a0 e1 	mov	r1, r0
   13538:	ff 2f 0f e3 	movw	r2, #65535
   1353c:	02 00 10 e1 	tst	r0, r2
   13540:	00 10 8d e5 	str	r1, [sp]
   13544:	03 00 00 0a 	beq	#12 <std.fmt.formatType+0x58>
   13548:	ff ff ff ea 	b	#-4 <std.fmt.formatType+0x4c>
   1354c:	08 00 9d e5 	ldr	r0, [sp, #8]
   13550:	b8 02 00 eb 	bl	#2784 <__zig_return_error>
   13554:	00 00 00 ea 	b	#0 <std.fmt.formatType+0x5c>
   13558:	ff ff ff ea 	b	#-4 <std.fmt.formatType+0x5c>
   1355c:	00 00 9d e5 	ldr	r0, [sp]
   13560:	0b d0 a0 e1 	mov	sp, r11
   13564:	00 88 bd e8 	pop	{r11, pc}

std.fmt.formatType.18:
   13568:	00 48 2d e9 	push	{r11, lr}
   1356c:	0d b0 a0 e1 	mov	r11, sp
   13570:	18 d0 4d e2 	sub	sp, sp, #24
   13574:	08 c0 9b e5 	ldr	r12, [r11, #8]
   13578:	0c 30 8d e5 	str	r3, [sp, #12]
   1357c:	0c 30 9d e5 	ldr	r3, [sp, #12]
   13580:	08 10 0b e5 	str	r1, [r11, #-8]
   13584:	03 10 a0 e3 	mov	r1, #3
   13588:	04 10 0b e5 	str	r1, [r11, #-4]
   1358c:	08 10 4b e2 	sub	r1, r11, #8
   13590:	08 00 8d e5 	str	r0, [sp, #8]
   13594:	04 c0 8d e5 	str	r12, [sp, #4]
   13598:	92 02 00 eb 	bl	#2632 <std.fmt.formatText>
   1359c:	00 10 a0 e1 	mov	r1, r0
   135a0:	ff 2f 0f e3 	movw	r2, #65535
   135a4:	02 00 10 e1 	tst	r0, r2
   135a8:	00 10 8d e5 	str	r1, [sp]
   135ac:	03 00 00 0a 	beq	#12 <std.fmt.formatType.18+0x58>
   135b0:	ff ff ff ea 	b	#-4 <std.fmt.formatType.18+0x4c>
   135b4:	08 00 9d e5 	ldr	r0, [sp, #8]
   135b8:	9e 02 00 eb 	bl	#2680 <__zig_return_error>
   135bc:	00 00 00 ea 	b	#0 <std.fmt.formatType.18+0x5c>
   135c0:	ff ff ff ea 	b	#-4 <std.fmt.formatType.18+0x5c>
   135c4:	00 00 9d e5 	ldr	r0, [sp]
   135c8:	0b d0 a0 e1 	mov	sp, r11
   135cc:	00 88 bd e8 	pop	{r11, pc}

video_core_properties.add:
   135d0:	00 48 2d e9 	push	{r11, lr}
   135d4:	0d b0 a0 e1 	mov	r11, sp
   135d8:	08 d0 4d e2 	sub	sp, sp, #8
   135dc:	04 00 8d e5 	str	r0, [sp, #4]
   135e0:	a8 02 00 eb 	bl	#2720 <video_core_properties.advance>
   135e4:	74 00 04 e3 	movw	r0, #16500
   135e8:	05 00 40 e3 	movt	r0, #5
   135ec:	00 00 90 e5 	ldr	r0, [r0]
   135f0:	01 10 40 e2 	sub	r1, r0, #1
   135f4:	01 00 50 e3 	cmp	r0, #1
   135f8:	00 10 8d e5 	str	r1, [sp]
   135fc:	04 00 00 2a 	bhs	#16 <video_core_properties.add+0x44>
   13600:	ff ff ff ea 	b	#-4 <video_core_properties.add+0x34>
   13604:	d8 0e 04 e3 	movw	r0, #20184
   13608:	03 00 40 e3 	movt	r0, #3
   1360c:	00 10 a0 e3 	mov	r1, #0
   13610:	0b f7 ff eb 	bl	#-9172 <panic>
   13614:	00 00 9d e5 	ldr	r0, [sp]
   13618:	01 0b 50 e3 	cmp	r0, #1024
   1361c:	04 00 00 3a 	blo	#16 <video_core_properties.add+0x64>
   13620:	ff ff ff ea 	b	#-4 <video_core_properties.add+0x54>
   13624:	84 00 05 e3 	movw	r0, #20612
   13628:	03 00 40 e3 	movt	r0, #3
   1362c:	00 10 a0 e3 	mov	r1, #0
   13630:	03 f7 ff eb 	bl	#-9204 <panic>
   13634:	80 00 04 e3 	movw	r0, #16512
   13638:	05 00 40 e3 	movt	r0, #5
   1363c:	04 10 9d e5 	ldr	r1, [sp, #4]
   13640:	00 20 9d e5 	ldr	r2, [sp]
   13644:	02 11 80 e7 	str	r1, [r0, r2, lsl #2]
   13648:	0b d0 a0 e1 	mov	sp, r11
   1364c:	00 88 bd e8 	pop	{r11, pc}

arm_assembly_code.panicf.19:
   13650:	00 48 2d e9 	push	{r11, lr}
   13654:	0d b0 a0 e1 	mov	r11, sp
   13658:	70 00 04 e3 	movw	r0, #16496
   1365c:	05 00 40 e3 	movt	r0, #5
   13660:	00 00 d0 e5 	ldrb	r0, [r0]
   13664:	01 00 50 e3 	cmp	r0, #1
   13668:	01 00 00 1a 	bne	#4 <arm_assembly_code.panicf.19+0x24>
   1366c:	ff ff ff ea 	b	#-4 <arm_assembly_code.panicf.19+0x20>
   13670:	a1 02 00 eb 	bl	#2692 <arm_assembly_code.hang.33>
   13674:	ff ff ff ea 	b	#-4 <arm_assembly_code.panicf.19+0x28>
   13678:	70 00 04 e3 	movw	r0, #16496
   1367c:	05 00 40 e3 	movt	r0, #5
   13680:	01 10 a0 e3 	mov	r1, #1
   13684:	00 10 c0 e5 	strb	r1, [r0]
   13688:	a2 02 00 eb 	bl	#2696 <serial.log.34>
   1368c:	b1 02 00 eb 	bl	#2756 <arm_assembly_code.hang.35>

video_core_mailboxes.MailboxRegisters.pushRequestBlocking:
   13690:	00 48 2d e9 	push	{r11, lr}
   13694:	0d b0 a0 e1 	mov	r11, sp
   13698:	08 d0 4d e2 	sub	sp, sp, #8
   1369c:	04 00 8d e5 	str	r0, [sp, #4]
   136a0:	00 10 8d e5 	str	r1, [sp]
   136a4:	04 00 9d e5 	ldr	r0, [sp, #4]
   136a8:	02 11 a0 e3 	mov	r1, #-2147483648
   136ac:	03 03 00 eb 	bl	#3084 <video_core_mailboxes.MailboxRegisters.blockWhile>
   136b0:	0f 03 00 eb 	bl	#3132 <arm_assembly_code.dsbSt>
   136b4:	04 00 9d e5 	ldr	r0, [sp, #4]
   136b8:	00 10 9d e5 	ldr	r1, [sp]
   136bc:	00 10 80 e5 	str	r1, [r0]
   136c0:	0b d0 a0 e1 	mov	sp, r11
   136c4:	00 88 bd e8 	pop	{r11, pc}

video_core_mailboxes.MailboxRegisters.pullResponseBlocking:
   136c8:	00 48 2d e9 	push	{r11, lr}
   136cc:	0d b0 a0 e1 	mov	r11, sp
   136d0:	10 d0 4d e2 	sub	sp, sp, #16
   136d4:	08 00 8d e5 	str	r0, [sp, #8]
   136d8:	04 10 8d e5 	str	r1, [sp, #4]
   136dc:	08 00 9d e5 	ldr	r0, [sp, #8]
   136e0:	01 11 a0 e3 	mov	r1, #1073741824
   136e4:	f5 02 00 eb 	bl	#3028 <video_core_mailboxes.MailboxRegisters.blockWhile>
   136e8:	08 00 9d e5 	ldr	r0, [sp, #8]
   136ec:	00 00 90 e5 	ldr	r0, [r0]
   136f0:	04 00 0b e5 	str	r0, [r11, #-4]
   136f4:	04 00 1b e5 	ldr	r0, [r11, #-4]
   136f8:	04 10 9d e5 	ldr	r1, [sp, #4]
   136fc:	01 00 50 e1 	cmp	r0, r1
   13700:	03 00 00 0a 	beq	#12 <video_core_mailboxes.MailboxRegisters.pullResponseBlocking+0x4c>
   13704:	ff ff ff ea 	b	#-4 <video_core_mailboxes.MailboxRegisters.pullResponseBlocking+0x40>
   13708:	04 00 1b e5 	ldr	r0, [r11, #-4]
   1370c:	04 10 9d e5 	ldr	r1, [sp, #4]
   13710:	f9 02 00 eb 	bl	#3044 <arm_assembly_code.panicf.38>
   13714:	ff ff ff ea 	b	#-4 <video_core_mailboxes.MailboxRegisters.pullResponseBlocking+0x50>
   13718:	0b d0 a0 e1 	mov	sp, r11
   1371c:	00 88 bd e8 	pop	{r11, pc}

video_core_properties.check:
   13720:	00 48 2d e9 	push	{r11, lr}
   13724:	0d b0 a0 e1 	mov	r11, sp
   13728:	18 d0 4d e2 	sub	sp, sp, #24
   1372c:	08 00 0b e5 	str	r0, [r11, #-8]
   13730:	21 00 00 eb 	bl	#132 <video_core_properties.next>
   13734:	04 00 0b e5 	str	r0, [r11, #-4]
   13738:	04 00 1b e5 	ldr	r0, [r11, #-4]
   1373c:	08 10 1b e5 	ldr	r1, [r11, #-8]
   13740:	01 00 50 e1 	cmp	r0, r1
   13744:	08 00 00 0a 	beq	#32 <video_core_properties.check+0x4c>
   13748:	ff ff ff ea 	b	#-4 <video_core_properties.check+0x2c>
   1374c:	74 00 04 e3 	movw	r0, #16500
   13750:	05 00 40 e3 	movt	r0, #5
   13754:	00 00 90 e5 	ldr	r0, [r0]
   13758:	01 10 40 e2 	sub	r1, r0, #1
   1375c:	01 00 50 e3 	cmp	r0, #1
   13760:	0c 10 8d e5 	str	r1, [sp, #12]
   13764:	03 00 00 3a 	blo	#12 <video_core_properties.check+0x58>
   13768:	06 00 00 ea 	b	#24 <video_core_properties.check+0x68>
   1376c:	ff ff ff ea 	b	#-4 <video_core_properties.check+0x50>
   13770:	0b d0 a0 e1 	mov	sp, r11
   13774:	00 88 bd e8 	pop	{r11, pc}
   13778:	d8 0e 04 e3 	movw	r0, #20184
   1377c:	03 00 40 e3 	movt	r0, #3
   13780:	00 10 a0 e3 	mov	r1, #0
   13784:	ae f6 ff eb 	bl	#-9544 <panic>
   13788:	04 00 1b e5 	ldr	r0, [r11, #-4]
   1378c:	08 10 1b e5 	ldr	r1, [r11, #-8]
   13790:	0d 20 a0 e1 	mov	r2, sp
   13794:	00 10 82 e5 	str	r1, [r2]
   13798:	0c 20 9d e5 	ldr	r2, [sp, #12]
   1379c:	08 00 8d e5 	str	r0, [sp, #8]
   137a0:	02 00 a0 e1 	mov	r0, r2
   137a4:	08 30 9d e5 	ldr	r3, [sp, #8]
   137a8:	04 10 8d e5 	str	r1, [sp, #4]
   137ac:	03 10 a0 e1 	mov	r1, r3
   137b0:	03 20 a0 e1 	mov	r2, r3
   137b4:	04 30 9d e5 	ldr	r3, [sp, #4]
   137b8:	e4 02 00 eb 	bl	#2960 <arm_assembly_code.panicf.39>

video_core_properties.next:
   137bc:	00 48 2d e9 	push	{r11, lr}
   137c0:	0d b0 a0 e1 	mov	r11, sp
   137c4:	08 d0 4d e2 	sub	sp, sp, #8
   137c8:	2e 02 00 eb 	bl	#2232 <video_core_properties.advance>
   137cc:	74 00 04 e3 	movw	r0, #16500
   137d0:	05 00 40 e3 	movt	r0, #5
   137d4:	00 00 90 e5 	ldr	r0, [r0]
   137d8:	01 10 40 e2 	sub	r1, r0, #1
   137dc:	01 00 50 e3 	cmp	r0, #1
   137e0:	04 10 8d e5 	str	r1, [sp, #4]
   137e4:	04 00 00 2a 	bhs	#16 <video_core_properties.next+0x40>
   137e8:	ff ff ff ea 	b	#-4 <video_core_properties.next+0x30>
   137ec:	d8 0e 04 e3 	movw	r0, #20184
   137f0:	03 00 40 e3 	movt	r0, #3
   137f4:	00 10 a0 e3 	mov	r1, #0
   137f8:	91 f6 ff eb 	bl	#-9660 <panic>
   137fc:	04 00 9d e5 	ldr	r0, [sp, #4]
   13800:	01 0b 50 e3 	cmp	r0, #1024
   13804:	04 00 00 3a 	blo	#16 <video_core_properties.next+0x60>
   13808:	ff ff ff ea 	b	#-4 <video_core_properties.next+0x50>
   1380c:	84 00 05 e3 	movw	r0, #20612
   13810:	03 00 40 e3 	movt	r0, #3
   13814:	00 10 a0 e3 	mov	r1, #0
   13818:	89 f6 ff eb 	bl	#-9692 <panic>
   1381c:	80 00 04 e3 	movw	r0, #16512
   13820:	05 00 40 e3 	movt	r0, #5
   13824:	04 10 9d e5 	ldr	r1, [sp, #4]
   13828:	01 01 90 e7 	ldr	r0, [r0, r1, lsl #2]
   1382c:	0b d0 a0 e1 	mov	sp, r11
   13830:	00 88 bd e8 	pop	{r11, pc}

serial.log.20:
   13834:	00 48 2d e9 	push	{r11, lr}
   13838:	0d b0 a0 e1 	mov	r11, sp
   1383c:	90 d0 4d e2 	sub	sp, sp, #144
   13840:	00 00 a0 e3 	mov	r0, #0
   13844:	04 00 8d e5 	str	r0, [sp, #4]
   13848:	10 00 8d e2 	add	r0, sp, #16
   1384c:	08 00 8d e5 	str	r0, [sp, #8]
   13850:	20 00 a0 e3 	mov	r0, #32
   13854:	0c 00 8d e5 	str	r0, [sp, #12]
   13858:	3c 14 02 e3 	movw	r1, #9276
   1385c:	01 10 40 e3 	movt	r1, #1
   13860:	04 00 8d e2 	add	r0, sp, #4
   13864:	d6 02 00 eb 	bl	#2904 <std.fmt.format.40>
   13868:	b2 00 cd e1 	strh	r0, [sp, #2]
   1386c:	0b d0 a0 e1 	mov	sp, r11
   13870:	00 88 bd e8 	pop	{r11, pc}

arm_assembly_code.panicf.21:
   13874:	00 48 2d e9 	push	{r11, lr}
   13878:	0d b0 a0 e1 	mov	r11, sp
   1387c:	10 d0 4d e2 	sub	sp, sp, #16
   13880:	04 00 0b e5 	str	r0, [r11, #-4]
   13884:	08 10 8d e5 	str	r1, [sp, #8]
   13888:	04 20 8d e5 	str	r2, [sp, #4]
   1388c:	00 30 8d e5 	str	r3, [sp]
   13890:	70 00 04 e3 	movw	r0, #16496
   13894:	05 00 40 e3 	movt	r0, #5
   13898:	00 00 d0 e5 	ldrb	r0, [r0]
   1389c:	01 00 50 e3 	cmp	r0, #1
   138a0:	01 00 00 1a 	bne	#4 <arm_assembly_code.panicf.21+0x38>
   138a4:	ff ff ff ea 	b	#-4 <arm_assembly_code.panicf.21+0x34>
   138a8:	13 02 00 eb 	bl	#2124 <arm_assembly_code.hang.33>
   138ac:	ff ff ff ea 	b	#-4 <arm_assembly_code.panicf.21+0x3c>
   138b0:	70 00 04 e3 	movw	r0, #16496
   138b4:	05 00 40 e3 	movt	r0, #5
   138b8:	01 10 a0 e3 	mov	r1, #1
   138bc:	00 10 c0 e5 	strb	r1, [r0]
   138c0:	04 00 1b e5 	ldr	r0, [r11, #-4]
   138c4:	08 10 9d e5 	ldr	r1, [sp, #8]
   138c8:	04 20 9d e5 	ldr	r2, [sp, #4]
   138cc:	00 30 9d e5 	ldr	r3, [sp]
   138d0:	ca 02 00 eb 	bl	#2856 <serial.log.41>
   138d4:	1f 02 00 eb 	bl	#2172 <arm_assembly_code.hang.35>

arm_assembly_code.cntpct32:
   138d8:	0e 0f 51 ec 	mrrc	p15, #0, r0, r1, c14
   138dc:	1e ff 2f e1 	bx	lr

std.fmt.format.22:
   138e0:	00 48 2d e9 	push	{r11, lr}
   138e4:	0d b0 a0 e1 	mov	r11, sp
   138e8:	10 d0 4d e2 	sub	sp, sp, #16
   138ec:	08 10 8d e5 	str	r1, [sp, #8]
   138f0:	08 10 9d e5 	ldr	r1, [sp, #8]
   138f4:	20 21 05 e3 	movw	r2, #20768
   138f8:	03 20 40 e3 	movt	r2, #3
   138fc:	04 10 8d e5 	str	r1, [sp, #4]
   13900:	02 10 a0 e1 	mov	r1, r2
   13904:	04 20 9d e5 	ldr	r2, [sp, #4]
   13908:	32 ff 2f e1 	blx	r2
   1390c:	b2 00 4b e1 	strh	r0, [r11, #-2]
   13910:	00 00 a0 e3 	mov	r0, #0
   13914:	0b d0 a0 e1 	mov	sp, r11
   13918:	00 88 bd e8 	pop	{r11, pc}

arm_assembly_code.io:
   1391c:	00 48 2d e9 	push	{r11, lr}
   13920:	0d b0 a0 e1 	mov	r11, sp
   13924:	08 d0 4d e2 	sub	sp, sp, #8
   13928:	04 00 8d e5 	str	r0, [sp, #4]
   1392c:	04 00 9d e5 	ldr	r0, [sp, #4]
   13930:	3f 14 80 e2 	add	r1, r0, #1056964608
   13934:	00 00 51 e1 	cmp	r1, r0
   13938:	00 10 8d e5 	str	r1, [sp]
   1393c:	04 00 00 2a 	bhs	#16 <arm_assembly_code.io+0x38>
   13940:	ff ff ff ea 	b	#-4 <arm_assembly_code.io+0x28>
   13944:	d8 0e 04 e3 	movw	r0, #20184
   13948:	03 00 40 e3 	movt	r0, #3
   1394c:	00 10 a0 e3 	mov	r1, #0
   13950:	3b f6 ff eb 	bl	#-10004 <panic>
   13954:	00 00 9d e5 	ldr	r0, [sp]
   13958:	00 00 50 e3 	cmp	r0, #0
   1395c:	04 00 00 1a 	bne	#16 <arm_assembly_code.io+0x58>
   13960:	ff ff ff ea 	b	#-4 <arm_assembly_code.io+0x48>
   13964:	00 0f 04 e3 	movw	r0, #20224
   13968:	03 00 40 e3 	movt	r0, #3
   1396c:	00 10 a0 e3 	mov	r1, #0
   13970:	33 f6 ff eb 	bl	#-10036 <panic>
   13974:	00 00 9d e5 	ldr	r0, [sp]
   13978:	0b d0 a0 e1 	mov	sp, r11
   1397c:	00 88 bd e8 	pop	{r11, pc}

std.fmt.format.23:
   13980:	00 48 2d e9 	push	{r11, lr}
   13984:	0d b0 a0 e1 	mov	r11, sp
   13988:	20 d0 4d e2 	sub	sp, sp, #32
   1398c:	0c 10 0b e5 	str	r1, [r11, #-12]
   13990:	10 20 8d e5 	str	r2, [sp, #16]
   13994:	0c 10 1b e5 	ldr	r1, [r11, #-12]
   13998:	54 21 05 e3 	movw	r2, #20820
   1399c:	03 20 40 e3 	movt	r2, #3
   139a0:	0c 00 8d e5 	str	r0, [sp, #12]
   139a4:	08 10 8d e5 	str	r1, [sp, #8]
   139a8:	02 10 a0 e1 	mov	r1, r2
   139ac:	08 20 9d e5 	ldr	r2, [sp, #8]
   139b0:	32 ff 2f e1 	blx	r2
   139b4:	b2 00 4b e1 	strh	r0, [r11, #-2]
   139b8:	10 10 9d e5 	ldr	r1, [sp, #16]
   139bc:	0c 30 1b e5 	ldr	r3, [r11, #-12]
   139c0:	0d 00 a0 e1 	mov	r0, sp
   139c4:	03 20 a0 e3 	mov	r2, #3
   139c8:	00 20 80 e5 	str	r2, [r0]
   139cc:	5c 21 05 e3 	movw	r2, #20828
   139d0:	03 20 40 e3 	movt	r2, #3
   139d4:	0c 00 9d e5 	ldr	r0, [sp, #12]
   139d8:	a3 02 00 eb 	bl	#2700 <std.fmt.formatType.42>
   139dc:	b4 00 4b e1 	strh	r0, [r11, #-4]
   139e0:	0c 00 1b e5 	ldr	r0, [r11, #-12]
   139e4:	70 11 05 e3 	movw	r1, #20848
   139e8:	03 10 40 e3 	movt	r1, #3
   139ec:	0c 20 9d e5 	ldr	r2, [sp, #12]
   139f0:	04 00 8d e5 	str	r0, [sp, #4]
   139f4:	02 00 a0 e1 	mov	r0, r2
   139f8:	04 30 9d e5 	ldr	r3, [sp, #4]
   139fc:	33 ff 2f e1 	blx	r3
   13a00:	b6 00 4b e1 	strh	r0, [r11, #-6]
   13a04:	00 00 a0 e3 	mov	r0, #0
   13a08:	0b d0 a0 e1 	mov	sp, r11
   13a0c:	00 88 bd e8 	pop	{r11, pc}

serial.log.24:
   13a10:	00 48 2d e9 	push	{r11, lr}
   13a14:	0d b0 a0 e1 	mov	r11, sp
   13a18:	90 d0 4d e2 	sub	sp, sp, #144
   13a1c:	00 00 a0 e3 	mov	r0, #0
   13a20:	04 00 8d e5 	str	r0, [sp, #4]
   13a24:	10 00 8d e2 	add	r0, sp, #16
   13a28:	08 00 8d e5 	str	r0, [sp, #8]
   13a2c:	20 00 a0 e3 	mov	r0, #32
   13a30:	0c 00 8d e5 	str	r0, [sp, #12]
   13a34:	3c 14 02 e3 	movw	r1, #9276
   13a38:	01 10 40 e3 	movt	r1, #1
   13a3c:	04 00 8d e2 	add	r0, sp, #4
   13a40:	a1 02 00 eb 	bl	#2692 <std.fmt.format.43>
   13a44:	b2 00 cd e1 	strh	r0, [sp, #2]
   13a48:	0b d0 a0 e1 	mov	sp, r11
   13a4c:	00 88 bd e8 	pop	{r11, pc}

std.fmt.format.25:
   13a50:	00 48 2d e9 	push	{r11, lr}
   13a54:	0d b0 a0 e1 	mov	r11, sp
   13a58:	10 d0 4d e2 	sub	sp, sp, #16
   13a5c:	08 10 8d e5 	str	r1, [sp, #8]
   13a60:	08 10 9d e5 	ldr	r1, [sp, #8]
   13a64:	7c 21 05 e3 	movw	r2, #20860
   13a68:	03 20 40 e3 	movt	r2, #3
   13a6c:	04 10 8d e5 	str	r1, [sp, #4]
   13a70:	02 10 a0 e1 	mov	r1, r2
   13a74:	04 20 9d e5 	ldr	r2, [sp, #4]
   13a78:	32 ff 2f e1 	blx	r2
   13a7c:	b2 00 4b e1 	strh	r0, [r11, #-2]
   13a80:	00 00 a0 e3 	mov	r0, #0
   13a84:	0b d0 a0 e1 	mov	sp, r11
   13a88:	00 88 bd e8 	pop	{r11, pc}

std.fmt.format.26:
   13a8c:	00 48 2d e9 	push	{r11, lr}
   13a90:	0d b0 a0 e1 	mov	r11, sp
   13a94:	10 d0 4d e2 	sub	sp, sp, #16
   13a98:	08 10 8d e5 	str	r1, [sp, #8]
   13a9c:	08 10 9d e5 	ldr	r1, [sp, #8]
   13aa0:	98 21 05 e3 	movw	r2, #20888
   13aa4:	03 20 40 e3 	movt	r2, #3
   13aa8:	04 10 8d e5 	str	r1, [sp, #4]
   13aac:	02 10 a0 e1 	mov	r1, r2
   13ab0:	04 20 9d e5 	ldr	r2, [sp, #4]
   13ab4:	32 ff 2f e1 	blx	r2
   13ab8:	b2 00 4b e1 	strh	r0, [r11, #-2]
   13abc:	00 00 a0 e3 	mov	r0, #0
   13ac0:	0b d0 a0 e1 	mov	sp, r11
   13ac4:	00 88 bd e8 	pop	{r11, pc}

serial.log.27:
   13ac8:	00 48 2d e9 	push	{r11, lr}
   13acc:	0d b0 a0 e1 	mov	r11, sp
   13ad0:	98 d0 4d e2 	sub	sp, sp, #152
   13ad4:	00 20 a0 e3 	mov	r2, #0
   13ad8:	0c 20 8d e5 	str	r2, [sp, #12]
   13adc:	18 20 8d e2 	add	r2, sp, #24
   13ae0:	10 20 8d e5 	str	r2, [sp, #16]
   13ae4:	20 20 a0 e3 	mov	r2, #32
   13ae8:	14 20 8d e5 	str	r2, [sp, #20]
   13aec:	3c 24 02 e3 	movw	r2, #9276
   13af0:	01 20 40 e3 	movt	r2, #1
   13af4:	0c 30 8d e2 	add	r3, sp, #12
   13af8:	04 00 8d e5 	str	r0, [sp, #4]
   13afc:	03 00 a0 e1 	mov	r0, r3
   13b00:	00 10 8d e5 	str	r1, [sp]
   13b04:	02 10 a0 e1 	mov	r1, r2
   13b08:	04 20 9d e5 	ldr	r2, [sp, #4]
   13b0c:	00 30 9d e5 	ldr	r3, [sp]
   13b10:	7c 02 00 eb 	bl	#2544 <std.fmt.format.44>
   13b14:	ba 00 cd e1 	strh	r0, [sp, #10]
   13b18:	0b d0 a0 e1 	mov	sp, r11
   13b1c:	00 88 bd e8 	pop	{r11, pc}

serial.log.28:
   13b20:	00 48 2d e9 	push	{r11, lr}
   13b24:	0d b0 a0 e1 	mov	r11, sp
   13b28:	90 d0 4d e2 	sub	sp, sp, #144
   13b2c:	00 00 a0 e3 	mov	r0, #0
   13b30:	04 00 8d e5 	str	r0, [sp, #4]
   13b34:	10 00 8d e2 	add	r0, sp, #16
   13b38:	08 00 8d e5 	str	r0, [sp, #8]
   13b3c:	20 00 a0 e3 	mov	r0, #32
   13b40:	0c 00 8d e5 	str	r0, [sp, #12]
   13b44:	3c 14 02 e3 	movw	r1, #9276
   13b48:	01 10 40 e3 	movt	r1, #1
   13b4c:	04 00 8d e2 	add	r0, sp, #4
   13b50:	a6 02 00 eb 	bl	#2712 <std.fmt.format.45>
   13b54:	b2 00 cd e1 	strh	r0, [sp, #2]
   13b58:	0b d0 a0 e1 	mov	sp, r11
   13b5c:	00 88 bd e8 	pop	{r11, pc}

std.fmt.format.29:
   13b60:	00 48 2d e9 	push	{r11, lr}
   13b64:	0d b0 a0 e1 	mov	r11, sp
   13b68:	10 d0 4d e2 	sub	sp, sp, #16
   13b6c:	08 10 8d e5 	str	r1, [sp, #8]
   13b70:	08 10 9d e5 	ldr	r1, [sp, #8]
   13b74:	e0 21 05 e3 	movw	r2, #20960
   13b78:	03 20 40 e3 	movt	r2, #3
   13b7c:	04 10 8d e5 	str	r1, [sp, #4]
   13b80:	02 10 a0 e1 	mov	r1, r2
   13b84:	04 20 9d e5 	ldr	r2, [sp, #4]
   13b88:	32 ff 2f e1 	blx	r2
   13b8c:	b2 00 4b e1 	strh	r0, [r11, #-2]
   13b90:	00 00 a0 e3 	mov	r0, #0
   13b94:	0b d0 a0 e1 	mov	sp, r11
   13b98:	00 88 bd e8 	pop	{r11, pc}

std.fmt.formatType.30:
   13b9c:	00 48 2d e9 	push	{r11, lr}
   13ba0:	0d b0 a0 e1 	mov	r11, sp
   13ba4:	10 d0 4d e2 	sub	sp, sp, #16
   13ba8:	08 c0 9b e5 	ldr	r12, [r11, #8]
   13bac:	04 30 0b e5 	str	r3, [r11, #-4]
   13bb0:	04 30 1b e5 	ldr	r3, [r11, #-4]
   13bb4:	08 00 8d e5 	str	r0, [sp, #8]
   13bb8:	04 c0 8d e5 	str	r12, [sp, #4]
   13bbc:	9a 02 00 eb 	bl	#2664 <std.fmt.formatText.46>
   13bc0:	00 10 a0 e1 	mov	r1, r0
   13bc4:	ff 2f 0f e3 	movw	r2, #65535
   13bc8:	02 00 10 e1 	tst	r0, r2
   13bcc:	00 10 8d e5 	str	r1, [sp]
   13bd0:	03 00 00 0a 	beq	#12 <std.fmt.formatType.30+0x48>
   13bd4:	ff ff ff ea 	b	#-4 <std.fmt.formatType.30+0x3c>
   13bd8:	08 00 9d e5 	ldr	r0, [sp, #8]
   13bdc:	15 01 00 eb 	bl	#1108 <__zig_return_error>
   13be0:	00 00 00 ea 	b	#0 <std.fmt.formatType.30+0x4c>
   13be4:	ff ff ff ea 	b	#-4 <std.fmt.formatType.30+0x4c>
   13be8:	00 00 9d e5 	ldr	r0, [sp]
   13bec:	0b d0 a0 e1 	mov	sp, r11
   13bf0:	00 88 bd e8 	pop	{r11, pc}

std.fmt.format.31:
   13bf4:	00 48 2d e9 	push	{r11, lr}
   13bf8:	0d b0 a0 e1 	mov	r11, sp
   13bfc:	10 d0 4d e2 	sub	sp, sp, #16
   13c00:	08 10 8d e5 	str	r1, [sp, #8]
   13c04:	08 10 9d e5 	ldr	r1, [sp, #8]
   13c08:	18 22 05 e3 	movw	r2, #21016
   13c0c:	03 20 40 e3 	movt	r2, #3
   13c10:	04 10 8d e5 	str	r1, [sp, #4]
   13c14:	02 10 a0 e1 	mov	r1, r2
   13c18:	04 20 9d e5 	ldr	r2, [sp, #4]
   13c1c:	32 ff 2f e1 	blx	r2
   13c20:	b2 00 4b e1 	strh	r0, [r11, #-2]
   13c24:	00 00 a0 e3 	mov	r0, #0
   13c28:	0b d0 a0 e1 	mov	sp, r11
   13c2c:	00 88 bd e8 	pop	{r11, pc}

arm_assembly_code.delay:
   13c30:	00 48 2d e9 	push	{r11, lr}
   13c34:	0d b0 a0 e1 	mov	r11, sp
   13c38:	10 d0 4d e2 	sub	sp, sp, #16
   13c3c:	08 00 8d e5 	str	r0, [sp, #8]
   13c40:	00 00 a0 e3 	mov	r0, #0
   13c44:	04 00 0b e5 	str	r0, [r11, #-4]
   13c48:	ff ff ff ea 	b	#-4 <arm_assembly_code.delay+0x1c>
   13c4c:	04 00 1b e5 	ldr	r0, [r11, #-4]
   13c50:	08 10 9d e5 	ldr	r1, [sp, #8]
   13c54:	01 00 50 e1 	cmp	r0, r1
   13c58:	07 00 00 2a 	bhs	#28 <arm_assembly_code.delay+0x4c>
   13c5c:	ff ff ff ea 	b	#-4 <arm_assembly_code.delay+0x30>
   13c60:	00 00 a0 e1 	mov	r0, r0
   13c64:	04 00 1b e5 	ldr	r0, [r11, #-4]
   13c68:	01 10 80 e2 	add	r1, r0, #1
   13c6c:	00 00 51 e1 	cmp	r1, r0
   13c70:	04 10 8d e5 	str	r1, [sp, #4]
   13c74:	02 00 00 3a 	blo	#8 <arm_assembly_code.delay+0x54>
   13c78:	05 00 00 ea 	b	#20 <arm_assembly_code.delay+0x64>
   13c7c:	0b d0 a0 e1 	mov	sp, r11
   13c80:	00 88 bd e8 	pop	{r11, pc}
   13c84:	d8 0e 04 e3 	movw	r0, #20184
   13c88:	03 00 40 e3 	movt	r0, #3
   13c8c:	00 10 a0 e3 	mov	r1, #0
   13c90:	6b f5 ff eb 	bl	#-10836 <panic>
   13c94:	04 00 9d e5 	ldr	r0, [sp, #4]
   13c98:	04 00 0b e5 	str	r0, [r11, #-4]
   13c9c:	ea ff ff ea 	b	#-88 <arm_assembly_code.delay+0x1c>

gpio.IoArray.write:
   13ca0:	00 48 2d e9 	push	{r11, lr}
   13ca4:	0d b0 a0 e1 	mov	r11, sp
   13ca8:	30 d0 4d e2 	sub	sp, sp, #48
   13cac:	10 00 0b e5 	str	r0, [r11, #-16]
   13cb0:	14 10 0b e5 	str	r1, [r11, #-20]
   13cb4:	10 00 1b e5 	ldr	r0, [r11, #-16]
   13cb8:	34 10 a0 e3 	mov	r1, #52
   13cbc:	6e 02 00 eb 	bl	#2488 <gpio.rangeCheck>
   13cc0:	14 00 1b e5 	ldr	r0, [r11, #-20]
   13cc4:	01 10 a0 e3 	mov	r1, #1
   13cc8:	18 10 8d e5 	str	r1, [sp, #24]
   13ccc:	6a 02 00 eb 	bl	#2472 <gpio.rangeCheck>
   13cd0:	10 00 1b e5 	ldr	r0, [r11, #-16]
   13cd4:	18 10 9d e5 	ldr	r1, [sp, #24]
   13cd8:	00 00 51 e3 	cmp	r1, #0
   13cdc:	14 00 8d e5 	str	r0, [sp, #20]
   13ce0:	04 00 00 1a 	bne	#16 <gpio.IoArray.write+0x58>
   13ce4:	ff ff ff ea 	b	#-4 <gpio.IoArray.write+0x48>
   13ce8:	28 00 05 e3 	movw	r0, #20520
   13cec:	03 00 40 e3 	movt	r0, #3
   13cf0:	00 10 a0 e3 	mov	r1, #0
   13cf4:	52 f5 ff eb 	bl	#-10936 <panic>
   13cf8:	14 00 9d e5 	ldr	r0, [sp, #20]
   13cfc:	a0 12 a0 e1 	lsr	r1, r0, #5
   13d00:	01 11 a0 e1 	lsl	r1, r1, #2
   13d04:	00 20 a0 e3 	mov	r2, #0
   13d08:	00 00 52 e3 	cmp	r2, #0
   13d0c:	10 10 8d e5 	str	r1, [sp, #16]
   13d10:	04 00 00 0a 	beq	#16 <gpio.IoArray.write+0x88>
   13d14:	ff ff ff ea 	b	#-4 <gpio.IoArray.write+0x78>
   13d18:	d8 0e 04 e3 	movw	r0, #20184
   13d1c:	03 00 40 e3 	movt	r0, #3
   13d20:	00 10 a0 e3 	mov	r1, #0
   13d24:	46 f5 ff eb 	bl	#-10984 <panic>
   13d28:	98 00 00 e3 	movw	r0, #152
   13d2c:	20 00 40 e3 	movt	r0, #32
   13d30:	10 10 9d e5 	ldr	r1, [sp, #16]
   13d34:	00 00 81 e0 	add	r0, r1, r0
   13d38:	01 00 50 e1 	cmp	r0, r1
   13d3c:	0c 00 8d e5 	str	r0, [sp, #12]
   13d40:	04 00 00 2a 	bhs	#16 <gpio.IoArray.write+0xb8>
   13d44:	ff ff ff ea 	b	#-4 <gpio.IoArray.write+0xa8>
   13d48:	d8 0e 04 e3 	movw	r0, #20184
   13d4c:	03 00 40 e3 	movt	r0, #3
   13d50:	00 10 a0 e3 	mov	r1, #0
   13d54:	3a f5 ff eb 	bl	#-11032 <panic>
   13d58:	0c 00 9d e5 	ldr	r0, [sp, #12]
   13d5c:	ee fe ff eb 	bl	#-1096 <arm_assembly_code.io>
   13d60:	04 00 0b e5 	str	r0, [r11, #-4]
   13d64:	10 00 1b e5 	ldr	r0, [r11, #-16]
   13d68:	00 10 a0 e3 	mov	r1, #0
   13d6c:	00 00 51 e3 	cmp	r1, #0
   13d70:	08 00 8d e5 	str	r0, [sp, #8]
   13d74:	07 00 00 1a 	bne	#28 <gpio.IoArray.write+0xf8>
   13d78:	ff ff ff ea 	b	#-4 <gpio.IoArray.write+0xdc>
   13d7c:	08 00 9d e5 	ldr	r0, [sp, #8]
   13d80:	1f 10 00 e2 	and	r1, r0, #31
   13d84:	00 20 a0 e3 	mov	r2, #0
   13d88:	00 00 52 e3 	cmp	r2, #0
   13d8c:	04 10 8d e5 	str	r1, [sp, #4]
   13d90:	04 00 00 1a 	bne	#16 <gpio.IoArray.write+0x108>
   13d94:	07 00 00 ea 	b	#28 <gpio.IoArray.write+0x118>
   13d98:	4c 02 05 e3 	movw	r0, #21068
   13d9c:	03 00 40 e3 	movt	r0, #3
   13da0:	00 10 a0 e3 	mov	r1, #0
   13da4:	26 f5 ff eb 	bl	#-11112 <panic>
   13da8:	d8 0e 04 e3 	movw	r0, #20184
   13dac:	03 00 40 e3 	movt	r0, #3
   13db0:	00 10 a0 e3 	mov	r1, #0
   13db4:	22 f5 ff eb 	bl	#-11128 <panic>
   13db8:	04 00 9d e5 	ldr	r0, [sp, #4]
   13dbc:	04 10 9d e5 	ldr	r1, [sp, #4]
   13dc0:	1f 20 01 e2 	and	r2, r1, #31
   13dc4:	02 00 51 e1 	cmp	r1, r2
   13dc8:	00 00 8d e5 	str	r0, [sp]
   13dcc:	15 00 00 1a 	bne	#84 <gpio.IoArray.write+0x188>
   13dd0:	ff ff ff ea 	b	#-4 <gpio.IoArray.write+0x134>
   13dd4:	00 00 9d e5 	ldr	r0, [sp]
   13dd8:	1f 10 00 e2 	and	r1, r0, #31
   13ddc:	05 10 4b e5 	strb	r1, [r11, #-5]
   13de0:	04 10 1b e5 	ldr	r1, [r11, #-4]
   13de4:	00 10 91 e5 	ldr	r1, [r1]
   13de8:	0c 10 0b e5 	str	r1, [r11, #-12]
   13dec:	0c 10 1b e5 	ldr	r1, [r11, #-12]
   13df0:	05 20 5b e5 	ldrb	r2, [r11, #-5]
   13df4:	01 30 a0 e3 	mov	r3, #1
   13df8:	13 12 c1 e1 	bic	r1, r1, r3, lsl r2
   13dfc:	0c 10 0b e5 	str	r1, [r11, #-12]
   13e00:	0c 10 1b e5 	ldr	r1, [r11, #-12]
   13e04:	14 20 1b e5 	ldr	r2, [r11, #-20]
   13e08:	05 30 5b e5 	ldrb	r3, [r11, #-5]
   13e0c:	12 13 81 e1 	orr	r1, r1, r2, lsl r3
   13e10:	0c 10 0b e5 	str	r1, [r11, #-12]
   13e14:	04 10 1b e5 	ldr	r1, [r11, #-4]
   13e18:	0c 20 1b e5 	ldr	r2, [r11, #-12]
   13e1c:	00 20 81 e5 	str	r2, [r1]
   13e20:	0b d0 a0 e1 	mov	sp, r11
   13e24:	00 88 bd e8 	pop	{r11, pc}
   13e28:	68 00 05 e3 	movw	r0, #20584
   13e2c:	03 00 40 e3 	movt	r0, #3
   13e30:	00 10 a0 e3 	mov	r1, #0
   13e34:	02 f5 ff eb 	bl	#-11256 <panic>

gpio.IoArray.write.32:
   13e38:	00 48 2d e9 	push	{r11, lr}
   13e3c:	0d b0 a0 e1 	mov	r11, sp
   13e40:	30 d0 4d e2 	sub	sp, sp, #48
   13e44:	10 00 0b e5 	str	r0, [r11, #-16]
   13e48:	14 10 0b e5 	str	r1, [r11, #-20]
   13e4c:	10 00 1b e5 	ldr	r0, [r11, #-16]
   13e50:	34 10 a0 e3 	mov	r1, #52
   13e54:	08 02 00 eb 	bl	#2080 <gpio.rangeCheck>
   13e58:	14 00 1b e5 	ldr	r0, [r11, #-20]
   13e5c:	04 10 a0 e3 	mov	r1, #4
   13e60:	05 02 00 eb 	bl	#2068 <gpio.rangeCheck>
   13e64:	10 00 1b e5 	ldr	r0, [r11, #-16]
   13e68:	01 10 a0 e3 	mov	r1, #1
   13e6c:	00 00 51 e3 	cmp	r1, #0
   13e70:	18 00 8d e5 	str	r0, [sp, #24]
   13e74:	04 00 00 1a 	bne	#16 <gpio.IoArray.write.32+0x54>
   13e78:	ff ff ff ea 	b	#-4 <gpio.IoArray.write.32+0x44>
   13e7c:	28 00 05 e3 	movw	r0, #20520
   13e80:	03 00 40 e3 	movt	r0, #3
   13e84:	00 10 a0 e3 	mov	r1, #0
   13e88:	ed f4 ff eb 	bl	#-11340 <panic>
   13e8c:	cd 0c 0c e3 	movw	r0, #52429
   13e90:	cc 0c 4c e3 	movt	r0, #52428
   13e94:	18 10 9d e5 	ldr	r1, [sp, #24]
   13e98:	91 00 82 e0 	umull	r0, r2, r1, r0
   13e9c:	a2 21 a0 e1 	lsr	r2, r2, #3
   13ea0:	02 21 a0 e1 	lsl	r2, r2, #2
   13ea4:	00 30 a0 e3 	mov	r3, #0
   13ea8:	00 00 53 e3 	cmp	r3, #0
   13eac:	14 20 8d e5 	str	r2, [sp, #20]
   13eb0:	04 00 00 0a 	beq	#16 <gpio.IoArray.write.32+0x90>
   13eb4:	ff ff ff ea 	b	#-4 <gpio.IoArray.write.32+0x80>
   13eb8:	d8 0e 04 e3 	movw	r0, #20184
   13ebc:	03 00 40 e3 	movt	r0, #3
   13ec0:	00 10 a0 e3 	mov	r1, #0
   13ec4:	de f4 ff eb 	bl	#-11400 <panic>
   13ec8:	14 00 9d e5 	ldr	r0, [sp, #20]
   13ecc:	02 16 80 e2 	add	r1, r0, #2097152
   13ed0:	00 00 51 e1 	cmp	r1, r0
   13ed4:	10 10 8d e5 	str	r1, [sp, #16]
   13ed8:	04 00 00 2a 	bhs	#16 <gpio.IoArray.write.32+0xb8>
   13edc:	ff ff ff ea 	b	#-4 <gpio.IoArray.write.32+0xa8>
   13ee0:	d8 0e 04 e3 	movw	r0, #20184
   13ee4:	03 00 40 e3 	movt	r0, #3
   13ee8:	00 10 a0 e3 	mov	r1, #0
   13eec:	d4 f4 ff eb 	bl	#-11440 <panic>
   13ef0:	10 00 9d e5 	ldr	r0, [sp, #16]
   13ef4:	88 fe ff eb 	bl	#-1504 <arm_assembly_code.io>
   13ef8:	04 00 0b e5 	str	r0, [r11, #-4]
   13efc:	10 00 1b e5 	ldr	r0, [r11, #-16]
   13f00:	00 10 a0 e3 	mov	r1, #0
   13f04:	00 00 51 e3 	cmp	r1, #0
   13f08:	0c 00 8d e5 	str	r0, [sp, #12]
   13f0c:	0d 00 00 1a 	bne	#52 <gpio.IoArray.write.32+0x110>
   13f10:	ff ff ff ea 	b	#-4 <gpio.IoArray.write.32+0xdc>
   13f14:	cd 0c 0c e3 	movw	r0, #52429
   13f18:	cc 0c 4c e3 	movt	r0, #52428
   13f1c:	0c 10 9d e5 	ldr	r1, [sp, #12]
   13f20:	91 00 82 e0 	umull	r0, r2, r1, r0
   13f24:	a2 21 a0 e1 	lsr	r2, r2, #3
   13f28:	02 21 82 e0 	add	r2, r2, r2, lsl #2
   13f2c:	82 20 41 e0 	sub	r2, r1, r2, lsl #1
   13f30:	03 30 a0 e3 	mov	r3, #3
   13f34:	92 23 83 e0 	umull	r2, r3, r2, r3
   13f38:	00 00 53 e3 	cmp	r3, #0
   13f3c:	08 20 8d e5 	str	r2, [sp, #8]
   13f40:	04 00 00 1a 	bne	#16 <gpio.IoArray.write.32+0x120>
   13f44:	07 00 00 ea 	b	#28 <gpio.IoArray.write.32+0x130>
   13f48:	4c 02 05 e3 	movw	r0, #21068
   13f4c:	03 00 40 e3 	movt	r0, #3
   13f50:	00 10 a0 e3 	mov	r1, #0
   13f54:	ba f4 ff eb 	bl	#-11544 <panic>
   13f58:	d8 0e 04 e3 	movw	r0, #20184
   13f5c:	03 00 40 e3 	movt	r0, #3
   13f60:	00 10 a0 e3 	mov	r1, #0
   13f64:	b6 f4 ff eb 	bl	#-11560 <panic>
   13f68:	08 00 9d e5 	ldr	r0, [sp, #8]
   13f6c:	08 10 9d e5 	ldr	r1, [sp, #8]
   13f70:	1f 20 01 e2 	and	r2, r1, #31
   13f74:	02 00 51 e1 	cmp	r1, r2
   13f78:	04 00 8d e5 	str	r0, [sp, #4]
   13f7c:	15 00 00 1a 	bne	#84 <gpio.IoArray.write.32+0x1a0>
   13f80:	ff ff ff ea 	b	#-4 <gpio.IoArray.write.32+0x14c>
   13f84:	04 00 9d e5 	ldr	r0, [sp, #4]
   13f88:	1f 10 00 e2 	and	r1, r0, #31
   13f8c:	05 10 4b e5 	strb	r1, [r11, #-5]
   13f90:	04 10 1b e5 	ldr	r1, [r11, #-4]
   13f94:	00 10 91 e5 	ldr	r1, [r1]
   13f98:	0c 10 0b e5 	str	r1, [r11, #-12]
   13f9c:	0c 10 1b e5 	ldr	r1, [r11, #-12]
   13fa0:	05 20 5b e5 	ldrb	r2, [r11, #-5]
   13fa4:	04 30 a0 e3 	mov	r3, #4
   13fa8:	13 12 c1 e1 	bic	r1, r1, r3, lsl r2
   13fac:	0c 10 0b e5 	str	r1, [r11, #-12]
   13fb0:	0c 10 1b e5 	ldr	r1, [r11, #-12]
   13fb4:	14 20 1b e5 	ldr	r2, [r11, #-20]
   13fb8:	05 30 5b e5 	ldrb	r3, [r11, #-5]
   13fbc:	12 13 81 e1 	orr	r1, r1, r2, lsl r3
   13fc0:	0c 10 0b e5 	str	r1, [r11, #-12]
   13fc4:	04 10 1b e5 	ldr	r1, [r11, #-4]
   13fc8:	0c 20 1b e5 	ldr	r2, [r11, #-12]
   13fcc:	00 20 81 e5 	str	r2, [r1]
   13fd0:	0b d0 a0 e1 	mov	sp, r11
   13fd4:	00 88 bd e8 	pop	{r11, pc}
   13fd8:	68 00 05 e3 	movw	r0, #20584
   13fdc:	03 00 40 e3 	movt	r0, #3
   13fe0:	00 10 a0 e3 	mov	r1, #0
   13fe4:	96 f4 ff eb 	bl	#-11688 <panic>

std.fmt.formatText:
   13fe8:	00 48 2d e9 	push	{r11, lr}
   13fec:	0d b0 a0 e1 	mov	r11, sp
   13ff0:	10 d0 4d e2 	sub	sp, sp, #16
   13ff4:	04 30 0b e5 	str	r3, [r11, #-4]
   13ff8:	04 20 1b e5 	ldr	r2, [r11, #-4]
   13ffc:	08 00 8d e5 	str	r0, [sp, #8]
   14000:	32 ff 2f e1 	blx	r2
   14004:	00 10 a0 e1 	mov	r1, r0
   14008:	ff 2f 0f e3 	movw	r2, #65535
   1400c:	02 00 10 e1 	tst	r0, r2
   14010:	04 10 8d e5 	str	r1, [sp, #4]
   14014:	03 00 00 0a 	beq	#12 <std.fmt.formatText+0x40>
   14018:	ff ff ff ea 	b	#-4 <std.fmt.formatText+0x34>
   1401c:	08 00 9d e5 	ldr	r0, [sp, #8]
   14020:	04 00 00 eb 	bl	#16 <__zig_return_error>
   14024:	00 00 00 ea 	b	#0 <std.fmt.formatText+0x44>
   14028:	ff ff ff ea 	b	#-4 <std.fmt.formatText+0x44>
   1402c:	04 00 9d e5 	ldr	r0, [sp, #4]
   14030:	0b d0 a0 e1 	mov	sp, r11
   14034:	00 88 bd e8 	pop	{r11, pc}

__zig_return_error:
   14038:	08 d0 4d e2 	sub	sp, sp, #8
   1403c:	00 00 50 e3 	cmp	r0, #0
   14040:	04 00 8d e5 	str	r0, [sp, #4]
   14044:	00 e0 8d e5 	str	lr, [sp]
   14048:	02 00 00 1a 	bne	#8 <__zig_return_error+0x20>
   1404c:	ff ff ff ea 	b	#-4 <__zig_return_error+0x18>
   14050:	08 d0 8d e2 	add	sp, sp, #8
   14054:	1e ff 2f e1 	bx	lr
   14058:	04 00 9d e5 	ldr	r0, [sp, #4]
   1405c:	00 10 90 e5 	ldr	r1, [r0]
   14060:	04 20 90 e5 	ldr	r2, [r0, #4]
   14064:	08 30 90 e5 	ldr	r3, [r0, #8]
   14068:	01 30 43 e2 	sub	r3, r3, #1
   1406c:	03 30 01 e0 	and	r3, r1, r3
   14070:	00 c0 9d e5 	ldr	r12, [sp]
   14074:	03 c1 82 e7 	str	r12, [r2, r3, lsl #2]
   14078:	01 10 81 e2 	add	r1, r1, #1
   1407c:	00 10 80 e5 	str	r1, [r0]
   14080:	08 d0 8d e2 	add	sp, sp, #8
   14084:	1e ff 2f e1 	bx	lr

video_core_properties.advance:
   14088:	00 48 2d e9 	push	{r11, lr}
   1408c:	0d b0 a0 e1 	mov	r11, sp
   14090:	08 d0 4d e2 	sub	sp, sp, #8
   14094:	74 00 04 e3 	movw	r0, #16500
   14098:	05 00 40 e3 	movt	r0, #5
   1409c:	00 00 90 e5 	ldr	r0, [r0]
   140a0:	01 0b 50 e3 	cmp	r0, #1024
   140a4:	01 00 00 3a 	blo	#4 <video_core_properties.advance+0x28>
   140a8:	ff ff ff ea 	b	#-4 <video_core_properties.advance+0x24>
   140ac:	82 01 00 eb 	bl	#1544 <arm_assembly_code.panicf.47>
   140b0:	74 00 04 e3 	movw	r0, #16500
   140b4:	05 00 40 e3 	movt	r0, #5
   140b8:	00 00 90 e5 	ldr	r0, [r0]
   140bc:	01 10 80 e2 	add	r1, r0, #1
   140c0:	00 00 51 e1 	cmp	r1, r0
   140c4:	04 10 8d e5 	str	r1, [sp, #4]
   140c8:	02 00 00 3a 	blo	#8 <video_core_properties.advance+0x50>
   140cc:	05 00 00 ea 	b	#20 <video_core_properties.advance+0x60>
   140d0:	0b d0 a0 e1 	mov	sp, r11
   140d4:	00 88 bd e8 	pop	{r11, pc}
   140d8:	d8 0e 04 e3 	movw	r0, #20184
   140dc:	03 00 40 e3 	movt	r0, #3
   140e0:	00 10 a0 e3 	mov	r1, #0
   140e4:	56 f4 ff eb 	bl	#-11944 <panic>
   140e8:	74 00 04 e3 	movw	r0, #16500
   140ec:	05 00 40 e3 	movt	r0, #5
   140f0:	04 10 9d e5 	ldr	r1, [sp, #4]
   140f4:	00 10 80 e5 	str	r1, [r0]
   140f8:	f4 ff ff ea 	b	#-48 <video_core_properties.advance+0x48>

arm_assembly_code.hang.33:
   140fc:	00 48 2d e9 	push	{r11, lr}
   14100:	0d b0 a0 e1 	mov	r11, sp
   14104:	7c 01 00 eb 	bl	#1520 <serial.log.48>
   14108:	ff ff ff ea 	b	#-4 <arm_assembly_code.hang.33+0x10>
   1410c:	ff ff ff ea 	b	#-4 <arm_assembly_code.hang.33+0x14>
   14110:	a1 fc ff eb 	bl	#-3452 <arm_assembly_code.v7.wfe>
   14114:	fc ff ff ea 	b	#-16 <arm_assembly_code.hang.33+0x10>

serial.log.34:
   14118:	00 48 2d e9 	push	{r11, lr}
   1411c:	0d b0 a0 e1 	mov	r11, sp
   14120:	90 d0 4d e2 	sub	sp, sp, #144
   14124:	00 00 a0 e3 	mov	r0, #0
   14128:	04 00 8d e5 	str	r0, [sp, #4]
   1412c:	10 00 8d e2 	add	r0, sp, #16
   14130:	08 00 8d e5 	str	r0, [sp, #8]
   14134:	20 00 a0 e3 	mov	r0, #32
   14138:	0c 00 8d e5 	str	r0, [sp, #12]
   1413c:	3c 14 02 e3 	movw	r1, #9276
   14140:	01 10 40 e3 	movt	r1, #1
   14144:	04 00 8d e2 	add	r0, sp, #4
   14148:	7b 01 00 eb 	bl	#1516 <std.fmt.format.49>
   1414c:	b2 00 cd e1 	strh	r0, [sp, #2]
   14150:	0b d0 a0 e1 	mov	sp, r11
   14154:	00 88 bd e8 	pop	{r11, pc}

arm_assembly_code.hang.35:
   14158:	00 48 2d e9 	push	{r11, lr}
   1415c:	0d b0 a0 e1 	mov	r11, sp
   14160:	84 01 00 eb 	bl	#1552 <serial.log.50>
   14164:	ff ff ff ea 	b	#-4 <arm_assembly_code.hang.35+0x10>
   14168:	ff ff ff ea 	b	#-4 <arm_assembly_code.hang.35+0x14>
   1416c:	8a fc ff eb 	bl	#-3544 <arm_assembly_code.v7.wfe>
   14170:	fc ff ff ea 	b	#-16 <arm_assembly_code.hang.35+0x10>

video_core_mailboxes.MailboxRegisters.init:
   14174:	00 48 2d e9 	push	{r11, lr}
   14178:	0d b0 a0 e1 	mov	r11, sp
   1417c:	10 d0 4d e2 	sub	sp, sp, #16
   14180:	04 00 0b e5 	str	r0, [r11, #-4]
   14184:	01 00 a0 e3 	mov	r0, #1
   14188:	1c f4 ff eb 	bl	#-12176 <std.debug.assert>
   1418c:	04 00 1b e5 	ldr	r0, [r11, #-4]
   14190:	02 00 50 e3 	cmp	r0, #2
   14194:	02 00 00 3a 	blo	#8 <video_core_mailboxes.MailboxRegisters.init+0x30>
   14198:	ff ff ff ea 	b	#-4 <video_core_mailboxes.MailboxRegisters.init+0x28>
   1419c:	04 00 1b e5 	ldr	r0, [r11, #-4]
   141a0:	1a 00 00 eb 	bl	#104 <arm_assembly_code.panicf.36>
   141a4:	ff ff ff ea 	b	#-4 <video_core_mailboxes.MailboxRegisters.init+0x34>
   141a8:	04 00 1b e5 	ldr	r0, [r11, #-4]
   141ac:	80 12 a0 e1 	lsl	r1, r0, #5
   141b0:	a0 0d a0 e1 	lsr	r0, r0, #27
   141b4:	00 00 50 e3 	cmp	r0, #0
   141b8:	08 10 8d e5 	str	r1, [sp, #8]
   141bc:	04 00 00 0a 	beq	#16 <video_core_mailboxes.MailboxRegisters.init+0x60>
   141c0:	ff ff ff ea 	b	#-4 <video_core_mailboxes.MailboxRegisters.init+0x50>
   141c4:	d8 0e 04 e3 	movw	r0, #20184
   141c8:	03 00 40 e3 	movt	r0, #3
   141cc:	00 10 a0 e3 	mov	r1, #0
   141d0:	1b f4 ff eb 	bl	#-12180 <panic>
   141d4:	80 08 0b e3 	movw	r0, #47232
   141d8:	08 10 9d e5 	ldr	r1, [sp, #8]
   141dc:	00 00 81 e0 	add	r0, r1, r0
   141e0:	01 00 50 e1 	cmp	r0, r1
   141e4:	04 00 8d e5 	str	r0, [sp, #4]
   141e8:	04 00 00 2a 	bhs	#16 <video_core_mailboxes.MailboxRegisters.init+0x8c>
   141ec:	ff ff ff ea 	b	#-4 <video_core_mailboxes.MailboxRegisters.init+0x7c>
   141f0:	d8 0e 04 e3 	movw	r0, #20184
   141f4:	03 00 40 e3 	movt	r0, #3
   141f8:	00 10 a0 e3 	mov	r1, #0
   141fc:	10 f4 ff eb 	bl	#-12224 <panic>
   14200:	04 00 9d e5 	ldr	r0, [sp, #4]
   14204:	14 00 00 eb 	bl	#80 <arm_assembly_code.io.37>
   14208:	0b d0 a0 e1 	mov	sp, r11
   1420c:	00 88 bd e8 	pop	{r11, pc}

arm_assembly_code.panicf.36:
   14210:	00 48 2d e9 	push	{r11, lr}
   14214:	0d b0 a0 e1 	mov	r11, sp
   14218:	08 d0 4d e2 	sub	sp, sp, #8
   1421c:	04 00 8d e5 	str	r0, [sp, #4]
   14220:	70 00 04 e3 	movw	r0, #16496
   14224:	05 00 40 e3 	movt	r0, #5
   14228:	00 00 d0 e5 	ldrb	r0, [r0]
   1422c:	01 00 50 e3 	cmp	r0, #1
   14230:	01 00 00 1a 	bne	#4 <arm_assembly_code.panicf.36+0x2c>
   14234:	ff ff ff ea 	b	#-4 <arm_assembly_code.panicf.36+0x28>
   14238:	af ff ff eb 	bl	#-324 <arm_assembly_code.hang.33>
   1423c:	ff ff ff ea 	b	#-4 <arm_assembly_code.panicf.36+0x30>
   14240:	70 00 04 e3 	movw	r0, #16496
   14244:	05 00 40 e3 	movt	r0, #5
   14248:	01 10 a0 e3 	mov	r1, #1
   1424c:	00 10 c0 e5 	strb	r1, [r0]
   14250:	04 00 9d e5 	ldr	r0, [sp, #4]
   14254:	57 01 00 eb 	bl	#1372 <serial.log.51>
   14258:	be ff ff eb 	bl	#-264 <arm_assembly_code.hang.35>

arm_assembly_code.io.37:
   1425c:	00 48 2d e9 	push	{r11, lr}
   14260:	0d b0 a0 e1 	mov	r11, sp
   14264:	08 d0 4d e2 	sub	sp, sp, #8
   14268:	04 00 8d e5 	str	r0, [sp, #4]
   1426c:	04 00 9d e5 	ldr	r0, [sp, #4]
   14270:	3f 14 80 e2 	add	r1, r0, #1056964608
   14274:	00 00 51 e1 	cmp	r1, r0
   14278:	00 10 8d e5 	str	r1, [sp]
   1427c:	04 00 00 2a 	bhs	#16 <arm_assembly_code.io.37+0x38>
   14280:	ff ff ff ea 	b	#-4 <arm_assembly_code.io.37+0x28>
   14284:	d8 0e 04 e3 	movw	r0, #20184
   14288:	03 00 40 e3 	movt	r0, #3
   1428c:	00 10 a0 e3 	mov	r1, #0
   14290:	eb f3 ff eb 	bl	#-12372 <panic>
   14294:	00 00 9d e5 	ldr	r0, [sp]
   14298:	00 00 50 e3 	cmp	r0, #0
   1429c:	04 00 00 1a 	bne	#16 <arm_assembly_code.io.37+0x58>
   142a0:	ff ff ff ea 	b	#-4 <arm_assembly_code.io.37+0x48>
   142a4:	00 0f 04 e3 	movw	r0, #20224
   142a8:	03 00 40 e3 	movt	r0, #3
   142ac:	00 10 a0 e3 	mov	r1, #0
   142b0:	e3 f3 ff eb 	bl	#-12404 <panic>
   142b4:	00 00 9d e5 	ldr	r0, [sp]
   142b8:	0b d0 a0 e1 	mov	sp, r11
   142bc:	00 88 bd e8 	pop	{r11, pc}

video_core_mailboxes.MailboxRegisters.blockWhile:
   142c0:	08 d0 4d e2 	sub	sp, sp, #8
   142c4:	04 00 8d e5 	str	r0, [sp, #4]
   142c8:	00 10 8d e5 	str	r1, [sp]
   142cc:	ff ff ff ea 	b	#-4 <video_core_mailboxes.MailboxRegisters.blockWhile+0x10>
   142d0:	04 00 9d e5 	ldr	r0, [sp, #4]
   142d4:	18 00 90 e5 	ldr	r0, [r0, #24]
   142d8:	00 10 9d e5 	ldr	r1, [sp]
   142dc:	01 00 10 e1 	tst	r0, r1
   142e0:	01 00 00 0a 	beq	#4 <video_core_mailboxes.MailboxRegisters.blockWhile+0x2c>
   142e4:	ff ff ff ea 	b	#-4 <video_core_mailboxes.MailboxRegisters.blockWhile+0x28>
   142e8:	f8 ff ff ea 	b	#-32 <video_core_mailboxes.MailboxRegisters.blockWhile+0x10>
   142ec:	08 d0 8d e2 	add	sp, sp, #8
   142f0:	1e ff 2f e1 	bx	lr

arm_assembly_code.dsbSt:
   142f4:	4e f0 7f f5 	dsb	st
   142f8:	1e ff 2f e1 	bx	lr

arm_assembly_code.panicf.38:
   142fc:	00 48 2d e9 	push	{r11, lr}
   14300:	0d b0 a0 e1 	mov	r11, sp
   14304:	08 d0 4d e2 	sub	sp, sp, #8
   14308:	04 00 8d e5 	str	r0, [sp, #4]
   1430c:	00 10 8d e5 	str	r1, [sp]
   14310:	70 00 04 e3 	movw	r0, #16496
   14314:	05 00 40 e3 	movt	r0, #5
   14318:	00 00 d0 e5 	ldrb	r0, [r0]
   1431c:	01 00 50 e3 	cmp	r0, #1
   14320:	01 00 00 1a 	bne	#4 <arm_assembly_code.panicf.38+0x30>
   14324:	ff ff ff ea 	b	#-4 <arm_assembly_code.panicf.38+0x2c>
   14328:	73 ff ff eb 	bl	#-564 <arm_assembly_code.hang.33>
   1432c:	ff ff ff ea 	b	#-4 <arm_assembly_code.panicf.38+0x34>
   14330:	70 00 04 e3 	movw	r0, #16496
   14334:	05 00 40 e3 	movt	r0, #5
   14338:	01 10 a0 e3 	mov	r1, #1
   1433c:	00 10 c0 e5 	strb	r1, [r0]
   14340:	04 00 9d e5 	ldr	r0, [sp, #4]
   14344:	00 10 9d e5 	ldr	r1, [sp]
   14348:	2c 01 00 eb 	bl	#1200 <serial.log.52>
   1434c:	81 ff ff eb 	bl	#-508 <arm_assembly_code.hang.35>

arm_assembly_code.panicf.39:
   14350:	00 48 2d e9 	push	{r11, lr}
   14354:	0d b0 a0 e1 	mov	r11, sp
   14358:	18 d0 4d e2 	sub	sp, sp, #24
   1435c:	08 c0 9b e5 	ldr	r12, [r11, #8]
   14360:	04 00 0b e5 	str	r0, [r11, #-4]
   14364:	08 10 0b e5 	str	r1, [r11, #-8]
   14368:	0c 20 8d e5 	str	r2, [sp, #12]
   1436c:	08 30 8d e5 	str	r3, [sp, #8]
   14370:	70 00 04 e3 	movw	r0, #16496
   14374:	05 00 40 e3 	movt	r0, #5
   14378:	00 00 d0 e5 	ldrb	r0, [r0]
   1437c:	01 00 50 e3 	cmp	r0, #1
   14380:	01 00 00 1a 	bne	#4 <arm_assembly_code.panicf.39+0x3c>
   14384:	ff ff ff ea 	b	#-4 <arm_assembly_code.panicf.39+0x38>
   14388:	5b ff ff eb 	bl	#-660 <arm_assembly_code.hang.33>
   1438c:	ff ff ff ea 	b	#-4 <arm_assembly_code.panicf.39+0x40>
   14390:	70 00 04 e3 	movw	r0, #16496
   14394:	05 00 40 e3 	movt	r0, #5
   14398:	01 10 a0 e3 	mov	r1, #1
   1439c:	00 10 c0 e5 	strb	r1, [r0]
   143a0:	04 00 1b e5 	ldr	r0, [r11, #-4]
   143a4:	08 10 1b e5 	ldr	r1, [r11, #-8]
   143a8:	0c 20 9d e5 	ldr	r2, [sp, #12]
   143ac:	08 30 9d e5 	ldr	r3, [sp, #8]
   143b0:	08 c0 9b e5 	ldr	r12, [r11, #8]
   143b4:	0d e0 a0 e1 	mov	lr, sp
   143b8:	00 c0 8e e5 	str	r12, [lr]
   143bc:	23 01 00 eb 	bl	#1164 <serial.log.53>
   143c0:	64 ff ff eb 	bl	#-624 <arm_assembly_code.hang.35>

std.fmt.format.40:
   143c4:	00 48 2d e9 	push	{r11, lr}
   143c8:	0d b0 a0 e1 	mov	r11, sp
   143cc:	10 d0 4d e2 	sub	sp, sp, #16
   143d0:	08 10 8d e5 	str	r1, [sp, #8]
   143d4:	08 10 9d e5 	ldr	r1, [sp, #8]
   143d8:	78 22 05 e3 	movw	r2, #21112
   143dc:	03 20 40 e3 	movt	r2, #3
   143e0:	04 10 8d e5 	str	r1, [sp, #4]
   143e4:	02 10 a0 e1 	mov	r1, r2
   143e8:	04 20 9d e5 	ldr	r2, [sp, #4]
   143ec:	32 ff 2f e1 	blx	r2
   143f0:	b2 00 4b e1 	strh	r0, [r11, #-2]
   143f4:	00 00 a0 e3 	mov	r0, #0
   143f8:	0b d0 a0 e1 	mov	sp, r11
   143fc:	00 88 bd e8 	pop	{r11, pc}

serial.log.41:
   14400:	00 48 2d e9 	push	{r11, lr}
   14404:	0d b0 a0 e1 	mov	r11, sp
   14408:	a8 d0 4d e2 	sub	sp, sp, #168
   1440c:	00 c0 a0 e3 	mov	r12, #0
   14410:	1c c0 8d e5 	str	r12, [sp, #28]
   14414:	28 c0 8d e2 	add	r12, sp, #40
   14418:	20 c0 8d e5 	str	r12, [sp, #32]
   1441c:	20 c0 a0 e3 	mov	r12, #32
   14420:	24 c0 8d e5 	str	r12, [sp, #36]
   14424:	14 00 8d e5 	str	r0, [sp, #20]
   14428:	10 10 8d e5 	str	r1, [sp, #16]
   1442c:	0c 20 8d e5 	str	r2, [sp, #12]
   14430:	08 30 8d e5 	str	r3, [sp, #8]
   14434:	14 20 9d e5 	ldr	r2, [sp, #20]
   14438:	10 30 9d e5 	ldr	r3, [sp, #16]
   1443c:	0c 00 9d e5 	ldr	r0, [sp, #12]
   14440:	08 10 9d e5 	ldr	r1, [sp, #8]
   14444:	0d c0 a0 e1 	mov	r12, sp
   14448:	04 10 8c e5 	str	r1, [r12, #4]
   1444c:	00 00 8c e5 	str	r0, [r12]
   14450:	3c 14 02 e3 	movw	r1, #9276
   14454:	01 10 40 e3 	movt	r1, #1
   14458:	1c 00 8d e2 	add	r0, sp, #28
   1445c:	1a 01 00 eb 	bl	#1128 <std.fmt.format.54>
   14460:	ba 01 cd e1 	strh	r0, [sp, #26]
   14464:	0b d0 a0 e1 	mov	sp, r11
   14468:	00 88 bd e8 	pop	{r11, pc}

std.fmt.formatType.42:
   1446c:	00 48 2d e9 	push	{r11, lr}
   14470:	0d b0 a0 e1 	mov	r11, sp
   14474:	18 d0 4d e2 	sub	sp, sp, #24
   14478:	08 c0 9b e5 	ldr	r12, [r11, #8]
   1447c:	04 10 0b e5 	str	r1, [r11, #-4]
   14480:	08 30 0b e5 	str	r3, [r11, #-8]
   14484:	04 10 1b e5 	ldr	r1, [r11, #-4]
   14488:	08 30 1b e5 	ldr	r3, [r11, #-8]
   1448c:	0c 00 8d e5 	str	r0, [sp, #12]
   14490:	08 c0 8d e5 	str	r12, [sp, #8]
   14494:	73 01 00 eb 	bl	#1484 <std.fmt.formatValue>
   14498:	00 10 a0 e1 	mov	r1, r0
   1449c:	ff 2f 0f e3 	movw	r2, #65535
   144a0:	02 00 10 e1 	tst	r0, r2
   144a4:	04 10 8d e5 	str	r1, [sp, #4]
   144a8:	03 00 00 0a 	beq	#12 <std.fmt.formatType.42+0x50>
   144ac:	ff ff ff ea 	b	#-4 <std.fmt.formatType.42+0x44>
   144b0:	0c 00 9d e5 	ldr	r0, [sp, #12]
   144b4:	df fe ff eb 	bl	#-1156 <__zig_return_error>
   144b8:	00 00 00 ea 	b	#0 <std.fmt.formatType.42+0x54>
   144bc:	ff ff ff ea 	b	#-4 <std.fmt.formatType.42+0x54>
   144c0:	04 00 9d e5 	ldr	r0, [sp, #4]
   144c4:	0b d0 a0 e1 	mov	sp, r11
   144c8:	00 88 bd e8 	pop	{r11, pc}

std.fmt.format.43:
   144cc:	00 48 2d e9 	push	{r11, lr}
   144d0:	0d b0 a0 e1 	mov	r11, sp
   144d4:	10 d0 4d e2 	sub	sp, sp, #16
   144d8:	08 10 8d e5 	str	r1, [sp, #8]
   144dc:	08 10 9d e5 	ldr	r1, [sp, #8]
   144e0:	b4 22 05 e3 	movw	r2, #21172
   144e4:	03 20 40 e3 	movt	r2, #3
   144e8:	04 10 8d e5 	str	r1, [sp, #4]
   144ec:	02 10 a0 e1 	mov	r1, r2
   144f0:	04 20 9d e5 	ldr	r2, [sp, #4]
   144f4:	32 ff 2f e1 	blx	r2
   144f8:	b2 00 4b e1 	strh	r0, [r11, #-2]
   144fc:	00 00 a0 e3 	mov	r0, #0
   14500:	0b d0 a0 e1 	mov	sp, r11
   14504:	00 88 bd e8 	pop	{r11, pc}

std.fmt.format.44:
   14508:	00 48 2d e9 	push	{r11, lr}
   1450c:	0d b0 a0 e1 	mov	r11, sp
   14510:	30 d0 4d e2 	sub	sp, sp, #48
   14514:	10 10 0b e5 	str	r1, [r11, #-16]
   14518:	10 10 1b e5 	ldr	r1, [r11, #-16]
   1451c:	bc c2 05 e3 	movw	r12, #21180
   14520:	03 c0 40 e3 	movt	r12, #3
   14524:	14 00 0b e5 	str	r0, [r11, #-20]
   14528:	18 10 8d e5 	str	r1, [sp, #24]
   1452c:	0c 10 a0 e1 	mov	r1, r12
   14530:	18 c0 9d e5 	ldr	r12, [sp, #24]
   14534:	14 30 8d e5 	str	r3, [sp, #20]
   14538:	10 20 8d e5 	str	r2, [sp, #16]
   1453c:	3c ff 2f e1 	blx	r12
   14540:	b2 00 4b e1 	strh	r0, [r11, #-2]
   14544:	10 30 1b e5 	ldr	r3, [r11, #-16]
   14548:	0d 00 a0 e1 	mov	r0, sp
   1454c:	03 10 a0 e3 	mov	r1, #3
   14550:	00 10 80 e5 	str	r1, [r0]
   14554:	c4 22 05 e3 	movw	r2, #21188
   14558:	03 20 40 e3 	movt	r2, #3
   1455c:	14 00 1b e5 	ldr	r0, [r11, #-20]
   14560:	10 c0 9d e5 	ldr	r12, [sp, #16]
   14564:	0c 10 8d e5 	str	r1, [sp, #12]
   14568:	0c 10 a0 e1 	mov	r1, r12
   1456c:	53 01 00 eb 	bl	#1356 <std.fmt.formatType.55>
   14570:	b4 00 4b e1 	strh	r0, [r11, #-4]
   14574:	10 00 1b e5 	ldr	r0, [r11, #-16]
   14578:	d8 12 05 e3 	movw	r1, #21208
   1457c:	03 10 40 e3 	movt	r1, #3
   14580:	14 20 1b e5 	ldr	r2, [r11, #-20]
   14584:	08 00 8d e5 	str	r0, [sp, #8]
   14588:	02 00 a0 e1 	mov	r0, r2
   1458c:	08 30 9d e5 	ldr	r3, [sp, #8]
   14590:	33 ff 2f e1 	blx	r3
   14594:	b6 00 4b e1 	strh	r0, [r11, #-6]
   14598:	10 30 1b e5 	ldr	r3, [r11, #-16]
   1459c:	0d 00 a0 e1 	mov	r0, sp
   145a0:	0c 10 9d e5 	ldr	r1, [sp, #12]
   145a4:	00 10 80 e5 	str	r1, [r0]
   145a8:	e0 22 05 e3 	movw	r2, #21216
   145ac:	03 20 40 e3 	movt	r2, #3
   145b0:	14 00 1b e5 	ldr	r0, [r11, #-20]
   145b4:	14 10 9d e5 	ldr	r1, [sp, #20]
   145b8:	5a 01 00 eb 	bl	#1384 <std.fmt.formatType.56>
   145bc:	b8 00 4b e1 	strh	r0, [r11, #-8]
   145c0:	10 00 1b e5 	ldr	r0, [r11, #-16]
   145c4:	f4 12 05 e3 	movw	r1, #21236
   145c8:	03 10 40 e3 	movt	r1, #3
   145cc:	14 20 1b e5 	ldr	r2, [r11, #-20]
   145d0:	04 00 8d e5 	str	r0, [sp, #4]
   145d4:	02 00 a0 e1 	mov	r0, r2
   145d8:	04 30 9d e5 	ldr	r3, [sp, #4]
   145dc:	33 ff 2f e1 	blx	r3
   145e0:	ba 00 4b e1 	strh	r0, [r11, #-10]
   145e4:	00 00 a0 e3 	mov	r0, #0
   145e8:	0b d0 a0 e1 	mov	sp, r11
   145ec:	00 88 bd e8 	pop	{r11, pc}

std.fmt.format.45:
   145f0:	00 48 2d e9 	push	{r11, lr}
   145f4:	0d b0 a0 e1 	mov	r11, sp
   145f8:	10 d0 4d e2 	sub	sp, sp, #16
   145fc:	08 10 8d e5 	str	r1, [sp, #8]
   14600:	08 10 9d e5 	ldr	r1, [sp, #8]
   14604:	2c 23 05 e3 	movw	r2, #21292
   14608:	03 20 40 e3 	movt	r2, #3
   1460c:	04 10 8d e5 	str	r1, [sp, #4]
   14610:	02 10 a0 e1 	mov	r1, r2
   14614:	04 20 9d e5 	ldr	r2, [sp, #4]
   14618:	32 ff 2f e1 	blx	r2
   1461c:	b2 00 4b e1 	strh	r0, [r11, #-2]
   14620:	00 00 a0 e3 	mov	r0, #0
   14624:	0b d0 a0 e1 	mov	sp, r11
   14628:	00 88 bd e8 	pop	{r11, pc}

std.fmt.formatText.46:
   1462c:	00 48 2d e9 	push	{r11, lr}
   14630:	0d b0 a0 e1 	mov	r11, sp
   14634:	10 d0 4d e2 	sub	sp, sp, #16
   14638:	04 30 0b e5 	str	r3, [r11, #-4]
   1463c:	04 20 1b e5 	ldr	r2, [r11, #-4]
   14640:	08 00 8d e5 	str	r0, [sp, #8]
   14644:	32 ff 2f e1 	blx	r2
   14648:	00 10 a0 e1 	mov	r1, r0
   1464c:	ff 2f 0f e3 	movw	r2, #65535
   14650:	02 00 10 e1 	tst	r0, r2
   14654:	04 10 8d e5 	str	r1, [sp, #4]
   14658:	03 00 00 0a 	beq	#12 <std.fmt.formatText.46+0x40>
   1465c:	ff ff ff ea 	b	#-4 <std.fmt.formatText.46+0x34>
   14660:	08 00 9d e5 	ldr	r0, [sp, #8]
   14664:	73 fe ff eb 	bl	#-1588 <__zig_return_error>
   14668:	00 00 00 ea 	b	#0 <std.fmt.formatText.46+0x44>
   1466c:	ff ff ff ea 	b	#-4 <std.fmt.formatText.46+0x44>
   14670:	04 00 9d e5 	ldr	r0, [sp, #4]
   14674:	0b d0 a0 e1 	mov	sp, r11
   14678:	00 88 bd e8 	pop	{r11, pc}

gpio.rangeCheck:
   1467c:	00 48 2d e9 	push	{r11, lr}
   14680:	0d b0 a0 e1 	mov	r11, sp
   14684:	08 d0 4d e2 	sub	sp, sp, #8
   14688:	04 00 8d e5 	str	r0, [sp, #4]
   1468c:	00 10 8d e5 	str	r1, [sp]
   14690:	04 00 9d e5 	ldr	r0, [sp, #4]
   14694:	00 10 9d e5 	ldr	r1, [sp]
   14698:	01 00 50 e1 	cmp	r0, r1
   1469c:	03 00 00 9a 	bls	#12 <gpio.rangeCheck+0x34>
   146a0:	ff ff ff ea 	b	#-4 <gpio.rangeCheck+0x28>
   146a4:	04 00 9d e5 	ldr	r0, [sp, #4]
   146a8:	00 10 9d e5 	ldr	r1, [sp]
   146ac:	33 01 00 eb 	bl	#1228 <arm_assembly_code.panicf.57>
   146b0:	ff ff ff ea 	b	#-4 <gpio.rangeCheck+0x38>
   146b4:	0b d0 a0 e1 	mov	sp, r11
   146b8:	00 88 bd e8 	pop	{r11, pc}

arm_assembly_code.panicf.47:
   146bc:	00 48 2d e9 	push	{r11, lr}
   146c0:	0d b0 a0 e1 	mov	r11, sp
   146c4:	70 00 04 e3 	movw	r0, #16496
   146c8:	05 00 40 e3 	movt	r0, #5
   146cc:	00 00 d0 e5 	ldrb	r0, [r0]
   146d0:	01 00 50 e3 	cmp	r0, #1
   146d4:	01 00 00 1a 	bne	#4 <arm_assembly_code.panicf.47+0x24>
   146d8:	ff ff ff ea 	b	#-4 <arm_assembly_code.panicf.47+0x20>
   146dc:	86 fe ff eb 	bl	#-1512 <arm_assembly_code.hang.33>
   146e0:	ff ff ff ea 	b	#-4 <arm_assembly_code.panicf.47+0x28>
   146e4:	70 00 04 e3 	movw	r0, #16496
   146e8:	05 00 40 e3 	movt	r0, #5
   146ec:	01 10 a0 e3 	mov	r1, #1
   146f0:	00 10 c0 e5 	strb	r1, [r0]
   146f4:	36 01 00 eb 	bl	#1240 <serial.log.58>
   146f8:	96 fe ff eb 	bl	#-1448 <arm_assembly_code.hang.35>

serial.log.48:
   146fc:	00 48 2d e9 	push	{r11, lr}
   14700:	0d b0 a0 e1 	mov	r11, sp
   14704:	90 d0 4d e2 	sub	sp, sp, #144
   14708:	00 00 a0 e3 	mov	r0, #0
   1470c:	04 00 8d e5 	str	r0, [sp, #4]
   14710:	10 00 8d e2 	add	r0, sp, #16
   14714:	08 00 8d e5 	str	r0, [sp, #8]
   14718:	20 00 a0 e3 	mov	r0, #32
   1471c:	0c 00 8d e5 	str	r0, [sp, #12]
   14720:	3c 14 02 e3 	movw	r1, #9276
   14724:	01 10 40 e3 	movt	r1, #1
   14728:	04 00 8d e2 	add	r0, sp, #4
   1472c:	38 01 00 eb 	bl	#1248 <std.fmt.format.59>
   14730:	b2 00 cd e1 	strh	r0, [sp, #2]
   14734:	0b d0 a0 e1 	mov	sp, r11
   14738:	00 88 bd e8 	pop	{r11, pc}

std.fmt.format.49:
   1473c:	00 48 2d e9 	push	{r11, lr}
   14740:	0d b0 a0 e1 	mov	r11, sp
   14744:	10 d0 4d e2 	sub	sp, sp, #16
   14748:	08 10 8d e5 	str	r1, [sp, #8]
   1474c:	08 10 9d e5 	ldr	r1, [sp, #8]
   14750:	70 23 05 e3 	movw	r2, #21360
   14754:	03 20 40 e3 	movt	r2, #3
   14758:	04 10 8d e5 	str	r1, [sp, #4]
   1475c:	02 10 a0 e1 	mov	r1, r2
   14760:	04 20 9d e5 	ldr	r2, [sp, #4]
   14764:	32 ff 2f e1 	blx	r2
   14768:	b2 00 4b e1 	strh	r0, [r11, #-2]
   1476c:	00 00 a0 e3 	mov	r0, #0
   14770:	0b d0 a0 e1 	mov	sp, r11
   14774:	00 88 bd e8 	pop	{r11, pc}

serial.log.50:
   14778:	00 48 2d e9 	push	{r11, lr}
   1477c:	0d b0 a0 e1 	mov	r11, sp
   14780:	90 d0 4d e2 	sub	sp, sp, #144
   14784:	00 00 a0 e3 	mov	r0, #0
   14788:	04 00 8d e5 	str	r0, [sp, #4]
   1478c:	10 00 8d e2 	add	r0, sp, #16
   14790:	08 00 8d e5 	str	r0, [sp, #8]
   14794:	20 00 a0 e3 	mov	r0, #32
   14798:	0c 00 8d e5 	str	r0, [sp, #12]
   1479c:	3c 14 02 e3 	movw	r1, #9276
   147a0:	01 10 40 e3 	movt	r1, #1
   147a4:	04 00 8d e2 	add	r0, sp, #4
   147a8:	28 01 00 eb 	bl	#1184 <std.fmt.format.60>
   147ac:	b2 00 cd e1 	strh	r0, [sp, #2]
   147b0:	0b d0 a0 e1 	mov	sp, r11
   147b4:	00 88 bd e8 	pop	{r11, pc}

serial.log.51:
   147b8:	00 48 2d e9 	push	{r11, lr}
   147bc:	0d b0 a0 e1 	mov	r11, sp
   147c0:	98 d0 4d e2 	sub	sp, sp, #152
   147c4:	00 10 a0 e3 	mov	r1, #0
   147c8:	0c 10 8d e5 	str	r1, [sp, #12]
   147cc:	18 10 8d e2 	add	r1, sp, #24
   147d0:	10 10 8d e5 	str	r1, [sp, #16]
   147d4:	20 10 a0 e3 	mov	r1, #32
   147d8:	14 10 8d e5 	str	r1, [sp, #20]
   147dc:	04 00 8d e5 	str	r0, [sp, #4]
   147e0:	04 20 9d e5 	ldr	r2, [sp, #4]
   147e4:	3c 14 02 e3 	movw	r1, #9276
   147e8:	01 10 40 e3 	movt	r1, #1
   147ec:	0c 00 8d e2 	add	r0, sp, #12
   147f0:	25 01 00 eb 	bl	#1172 <std.fmt.format.61>
   147f4:	ba 00 cd e1 	strh	r0, [sp, #10]
   147f8:	0b d0 a0 e1 	mov	sp, r11
   147fc:	00 88 bd e8 	pop	{r11, pc}

serial.log.52:
   14800:	00 48 2d e9 	push	{r11, lr}
   14804:	0d b0 a0 e1 	mov	r11, sp
   14808:	98 d0 4d e2 	sub	sp, sp, #152
   1480c:	00 20 a0 e3 	mov	r2, #0
   14810:	0c 20 8d e5 	str	r2, [sp, #12]
   14814:	18 20 8d e2 	add	r2, sp, #24
   14818:	10 20 8d e5 	str	r2, [sp, #16]
   1481c:	20 20 a0 e3 	mov	r2, #32
   14820:	14 20 8d e5 	str	r2, [sp, #20]
   14824:	04 00 8d e5 	str	r0, [sp, #4]
   14828:	00 10 8d e5 	str	r1, [sp]
   1482c:	04 20 9d e5 	ldr	r2, [sp, #4]
   14830:	00 30 9d e5 	ldr	r3, [sp]
   14834:	3c 14 02 e3 	movw	r1, #9276
   14838:	01 10 40 e3 	movt	r1, #1
   1483c:	0c 00 8d e2 	add	r0, sp, #12
   14840:	35 01 00 eb 	bl	#1236 <std.fmt.format.62>
   14844:	ba 00 cd e1 	strh	r0, [sp, #10]
   14848:	0b d0 a0 e1 	mov	sp, r11
   1484c:	00 88 bd e8 	pop	{r11, pc}

serial.log.53:
   14850:	10 4c 2d e9 	push	{r4, r10, r11, lr}
   14854:	08 b0 8d e2 	add	r11, sp, #8
   14858:	b0 d0 4d e2 	sub	sp, sp, #176
   1485c:	08 c0 9b e5 	ldr	r12, [r11, #8]
   14860:	00 e0 a0 e3 	mov	lr, #0
   14864:	24 e0 8d e5 	str	lr, [sp, #36]
   14868:	30 e0 8d e2 	add	lr, sp, #48
   1486c:	28 e0 8d e5 	str	lr, [sp, #40]
   14870:	20 e0 a0 e3 	mov	lr, #32
   14874:	2c e0 8d e5 	str	lr, [sp, #44]
   14878:	1c 00 8d e5 	str	r0, [sp, #28]
   1487c:	18 10 8d e5 	str	r1, [sp, #24]
   14880:	14 20 8d e5 	str	r2, [sp, #20]
   14884:	10 30 8d e5 	str	r3, [sp, #16]
   14888:	1c 20 9d e5 	ldr	r2, [sp, #28]
   1488c:	18 30 9d e5 	ldr	r3, [sp, #24]
   14890:	14 00 9d e5 	ldr	r0, [sp, #20]
   14894:	10 10 9d e5 	ldr	r1, [sp, #16]
   14898:	08 e0 9b e5 	ldr	lr, [r11, #8]
   1489c:	0d 40 a0 e1 	mov	r4, sp
   148a0:	08 e0 84 e5 	str	lr, [r4, #8]
   148a4:	04 10 84 e5 	str	r1, [r4, #4]
   148a8:	00 00 84 e5 	str	r0, [r4]
   148ac:	3c 14 02 e3 	movw	r1, #9276
   148b0:	01 10 40 e3 	movt	r1, #1
   148b4:	24 00 8d e2 	add	r0, sp, #36
   148b8:	0c c0 8d e5 	str	r12, [sp, #12]
   148bc:	53 01 00 eb 	bl	#1356 <std.fmt.format.63>
   148c0:	b2 02 cd e1 	strh	r0, [sp, #34]
   148c4:	08 d0 4b e2 	sub	sp, r11, #8
   148c8:	10 8c bd e8 	pop	{r4, r10, r11, pc}

std.fmt.format.54:
   148cc:	00 48 2d e9 	push	{r11, lr}
   148d0:	0d b0 a0 e1 	mov	r11, sp
   148d4:	50 d0 4d e2 	sub	sp, sp, #80
   148d8:	0c c0 9b e5 	ldr	r12, [r11, #12]
   148dc:	08 e0 9b e5 	ldr	lr, [r11, #8]
   148e0:	18 10 0b e5 	str	r1, [r11, #-24]
   148e4:	1c 20 0b e5 	str	r2, [r11, #-28]
   148e8:	20 30 0b e5 	str	r3, [r11, #-32]
   148ec:	18 10 1b e5 	ldr	r1, [r11, #-24]
   148f0:	b0 23 05 e3 	movw	r2, #21424
   148f4:	03 20 40 e3 	movt	r2, #3
   148f8:	24 00 0b e5 	str	r0, [r11, #-36]
   148fc:	28 10 8d e5 	str	r1, [sp, #40]
   14900:	02 10 a0 e1 	mov	r1, r2
   14904:	28 20 9d e5 	ldr	r2, [sp, #40]
   14908:	24 c0 8d e5 	str	r12, [sp, #36]
   1490c:	20 e0 8d e5 	str	lr, [sp, #32]
   14910:	32 ff 2f e1 	blx	r2
   14914:	b2 00 4b e1 	strh	r0, [r11, #-2]
   14918:	1c 10 1b e5 	ldr	r1, [r11, #-28]
   1491c:	18 30 1b e5 	ldr	r3, [r11, #-24]
   14920:	0d 00 a0 e1 	mov	r0, sp
   14924:	03 20 a0 e3 	mov	r2, #3
   14928:	00 20 80 e5 	str	r2, [r0]
   1492c:	b8 03 05 e3 	movw	r0, #21432
   14930:	03 00 40 e3 	movt	r0, #3
   14934:	24 c0 1b e5 	ldr	r12, [r11, #-36]
   14938:	1c 00 8d e5 	str	r0, [sp, #28]
   1493c:	0c 00 a0 e1 	mov	r0, r12
   14940:	1c e0 9d e5 	ldr	lr, [sp, #28]
   14944:	18 20 8d e5 	str	r2, [sp, #24]
   14948:	0e 20 a0 e1 	mov	r2, lr
   1494c:	ab 01 00 eb 	bl	#1708 <std.fmt.formatType.64>
   14950:	b4 00 4b e1 	strh	r0, [r11, #-4]
   14954:	18 00 1b e5 	ldr	r0, [r11, #-24]
   14958:	cc 13 05 e3 	movw	r1, #21452
   1495c:	03 10 40 e3 	movt	r1, #3
   14960:	24 20 1b e5 	ldr	r2, [r11, #-36]
   14964:	14 00 8d e5 	str	r0, [sp, #20]
   14968:	02 00 a0 e1 	mov	r0, r2
   1496c:	14 30 9d e5 	ldr	r3, [sp, #20]
   14970:	33 ff 2f e1 	blx	r3
   14974:	b6 00 4b e1 	strh	r0, [r11, #-6]
   14978:	20 10 1b e5 	ldr	r1, [r11, #-32]
   1497c:	18 30 1b e5 	ldr	r3, [r11, #-24]
   14980:	0d 00 a0 e1 	mov	r0, sp
   14984:	18 20 9d e5 	ldr	r2, [sp, #24]
   14988:	00 20 80 e5 	str	r2, [r0]
   1498c:	d4 23 05 e3 	movw	r2, #21460
   14990:	03 20 40 e3 	movt	r2, #3
   14994:	24 00 1b e5 	ldr	r0, [r11, #-36]
   14998:	98 01 00 eb 	bl	#1632 <std.fmt.formatType.64>
   1499c:	b8 00 4b e1 	strh	r0, [r11, #-8]
   149a0:	18 00 1b e5 	ldr	r0, [r11, #-24]
   149a4:	e8 13 05 e3 	movw	r1, #21480
   149a8:	03 10 40 e3 	movt	r1, #3
   149ac:	24 20 1b e5 	ldr	r2, [r11, #-36]
   149b0:	10 00 8d e5 	str	r0, [sp, #16]
   149b4:	02 00 a0 e1 	mov	r0, r2
   149b8:	10 30 9d e5 	ldr	r3, [sp, #16]
   149bc:	33 ff 2f e1 	blx	r3
   149c0:	ba 00 4b e1 	strh	r0, [r11, #-10]
   149c4:	08 10 9b e5 	ldr	r1, [r11, #8]
   149c8:	18 30 1b e5 	ldr	r3, [r11, #-24]
   149cc:	0d 00 a0 e1 	mov	r0, sp
   149d0:	18 20 9d e5 	ldr	r2, [sp, #24]
   149d4:	00 20 80 e5 	str	r2, [r0]
   149d8:	f0 23 05 e3 	movw	r2, #21488
   149dc:	03 20 40 e3 	movt	r2, #3
   149e0:	24 00 1b e5 	ldr	r0, [r11, #-36]
   149e4:	85 01 00 eb 	bl	#1556 <std.fmt.formatType.64>
   149e8:	bc 00 4b e1 	strh	r0, [r11, #-12]
   149ec:	18 00 1b e5 	ldr	r0, [r11, #-24]
   149f0:	04 14 05 e3 	movw	r1, #21508
   149f4:	03 10 40 e3 	movt	r1, #3
   149f8:	24 20 1b e5 	ldr	r2, [r11, #-36]
   149fc:	0c 00 8d e5 	str	r0, [sp, #12]
   14a00:	02 00 a0 e1 	mov	r0, r2
   14a04:	0c 30 9d e5 	ldr	r3, [sp, #12]
   14a08:	33 ff 2f e1 	blx	r3
   14a0c:	be 00 4b e1 	strh	r0, [r11, #-14]
   14a10:	0c 10 9b e5 	ldr	r1, [r11, #12]
   14a14:	18 30 1b e5 	ldr	r3, [r11, #-24]
   14a18:	0d 00 a0 e1 	mov	r0, sp
   14a1c:	18 20 9d e5 	ldr	r2, [sp, #24]
   14a20:	00 20 80 e5 	str	r2, [r0]
   14a24:	0c 24 05 e3 	movw	r2, #21516
   14a28:	03 20 40 e3 	movt	r2, #3
   14a2c:	24 00 1b e5 	ldr	r0, [r11, #-36]
   14a30:	72 01 00 eb 	bl	#1480 <std.fmt.formatType.64>
   14a34:	b0 01 4b e1 	strh	r0, [r11, #-16]
   14a38:	18 00 1b e5 	ldr	r0, [r11, #-24]
   14a3c:	20 14 05 e3 	movw	r1, #21536
   14a40:	03 10 40 e3 	movt	r1, #3
   14a44:	24 20 1b e5 	ldr	r2, [r11, #-36]
   14a48:	08 00 8d e5 	str	r0, [sp, #8]
   14a4c:	02 00 a0 e1 	mov	r0, r2
   14a50:	08 30 9d e5 	ldr	r3, [sp, #8]
   14a54:	33 ff 2f e1 	blx	r3
   14a58:	b2 01 4b e1 	strh	r0, [r11, #-18]
   14a5c:	00 00 a0 e3 	mov	r0, #0
   14a60:	0b d0 a0 e1 	mov	sp, r11
   14a64:	00 88 bd e8 	pop	{r11, pc}

std.fmt.formatValue:
   14a68:	00 48 2d e9 	push	{r11, lr}
   14a6c:	0d b0 a0 e1 	mov	r11, sp
   14a70:	10 d0 4d e2 	sub	sp, sp, #16
   14a74:	04 10 0b e5 	str	r1, [r11, #-4]
   14a78:	08 30 8d e5 	str	r3, [sp, #8]
   14a7c:	04 10 1b e5 	ldr	r1, [r11, #-4]
   14a80:	08 30 9d e5 	ldr	r3, [sp, #8]
   14a84:	04 00 8d e5 	str	r0, [sp, #4]
   14a88:	74 01 00 eb 	bl	#1488 <std.fmt.formatIntValue>
   14a8c:	00 10 a0 e1 	mov	r1, r0
   14a90:	ff 2f 0f e3 	movw	r2, #65535
   14a94:	02 00 10 e1 	tst	r0, r2
   14a98:	00 10 8d e5 	str	r1, [sp]
   14a9c:	03 00 00 0a 	beq	#12 <std.fmt.formatValue+0x48>
   14aa0:	ff ff ff ea 	b	#-4 <std.fmt.formatValue+0x3c>
   14aa4:	04 00 9d e5 	ldr	r0, [sp, #4]
   14aa8:	62 fd ff eb 	bl	#-2680 <__zig_return_error>
   14aac:	00 00 00 ea 	b	#0 <std.fmt.formatValue+0x4c>
   14ab0:	ff ff ff ea 	b	#-4 <std.fmt.formatValue+0x4c>
   14ab4:	00 00 9d e5 	ldr	r0, [sp]
   14ab8:	0b d0 a0 e1 	mov	sp, r11
   14abc:	00 88 bd e8 	pop	{r11, pc}

std.fmt.formatType.55:
   14ac0:	00 48 2d e9 	push	{r11, lr}
   14ac4:	0d b0 a0 e1 	mov	r11, sp
   14ac8:	18 d0 4d e2 	sub	sp, sp, #24
   14acc:	08 c0 9b e5 	ldr	r12, [r11, #8]
   14ad0:	0c 30 8d e5 	str	r3, [sp, #12]
   14ad4:	0c 30 9d e5 	ldr	r3, [sp, #12]
   14ad8:	08 10 0b e5 	str	r1, [r11, #-8]
   14adc:	08 10 a0 e3 	mov	r1, #8
   14ae0:	04 10 0b e5 	str	r1, [r11, #-4]
   14ae4:	08 10 4b e2 	sub	r1, r11, #8
   14ae8:	08 00 8d e5 	str	r0, [sp, #8]
   14aec:	04 c0 8d e5 	str	r12, [sp, #4]
   14af0:	77 01 00 eb 	bl	#1500 <std.fmt.formatText.65>
   14af4:	00 10 a0 e1 	mov	r1, r0
   14af8:	ff 2f 0f e3 	movw	r2, #65535
   14afc:	02 00 10 e1 	tst	r0, r2
   14b00:	00 10 8d e5 	str	r1, [sp]
   14b04:	03 00 00 0a 	beq	#12 <std.fmt.formatType.55+0x58>
   14b08:	ff ff ff ea 	b	#-4 <std.fmt.formatType.55+0x4c>
   14b0c:	08 00 9d e5 	ldr	r0, [sp, #8]
   14b10:	48 fd ff eb 	bl	#-2784 <__zig_return_error>
   14b14:	00 00 00 ea 	b	#0 <std.fmt.formatType.55+0x5c>
   14b18:	ff ff ff ea 	b	#-4 <std.fmt.formatType.55+0x5c>
   14b1c:	00 00 9d e5 	ldr	r0, [sp]
   14b20:	0b d0 a0 e1 	mov	sp, r11
   14b24:	00 88 bd e8 	pop	{r11, pc}

std.fmt.formatType.56:
   14b28:	00 48 2d e9 	push	{r11, lr}
   14b2c:	0d b0 a0 e1 	mov	r11, sp
   14b30:	10 d0 4d e2 	sub	sp, sp, #16
   14b34:	08 c0 9b e5 	ldr	r12, [r11, #8]
   14b38:	04 30 0b e5 	str	r3, [r11, #-4]
   14b3c:	04 30 1b e5 	ldr	r3, [r11, #-4]
   14b40:	08 00 8d e5 	str	r0, [sp, #8]
   14b44:	04 c0 8d e5 	str	r12, [sp, #4]
   14b48:	61 01 00 eb 	bl	#1412 <std.fmt.formatText.65>
   14b4c:	00 10 a0 e1 	mov	r1, r0
   14b50:	ff 2f 0f e3 	movw	r2, #65535
   14b54:	02 00 10 e1 	tst	r0, r2
   14b58:	00 10 8d e5 	str	r1, [sp]
   14b5c:	03 00 00 0a 	beq	#12 <std.fmt.formatType.56+0x48>
   14b60:	ff ff ff ea 	b	#-4 <std.fmt.formatType.56+0x3c>
   14b64:	08 00 9d e5 	ldr	r0, [sp, #8]
   14b68:	32 fd ff eb 	bl	#-2872 <__zig_return_error>
   14b6c:	00 00 00 ea 	b	#0 <std.fmt.formatType.56+0x4c>
   14b70:	ff ff ff ea 	b	#-4 <std.fmt.formatType.56+0x4c>
   14b74:	00 00 9d e5 	ldr	r0, [sp]
   14b78:	0b d0 a0 e1 	mov	sp, r11
   14b7c:	00 88 bd e8 	pop	{r11, pc}

arm_assembly_code.panicf.57:
   14b80:	00 48 2d e9 	push	{r11, lr}
   14b84:	0d b0 a0 e1 	mov	r11, sp
   14b88:	08 d0 4d e2 	sub	sp, sp, #8
   14b8c:	04 00 8d e5 	str	r0, [sp, #4]
   14b90:	00 10 8d e5 	str	r1, [sp]
   14b94:	70 00 04 e3 	movw	r0, #16496
   14b98:	05 00 40 e3 	movt	r0, #5
   14b9c:	00 00 d0 e5 	ldrb	r0, [r0]
   14ba0:	01 00 50 e3 	cmp	r0, #1
   14ba4:	01 00 00 1a 	bne	#4 <arm_assembly_code.panicf.57+0x30>
   14ba8:	ff ff ff ea 	b	#-4 <arm_assembly_code.panicf.57+0x2c>
   14bac:	5c 01 00 eb 	bl	#1392 <arm_assembly_code.hang.66>
   14bb0:	ff ff ff ea 	b	#-4 <arm_assembly_code.panicf.57+0x34>
   14bb4:	70 00 04 e3 	movw	r0, #16496
   14bb8:	05 00 40 e3 	movt	r0, #5
   14bbc:	01 10 a0 e3 	mov	r1, #1
   14bc0:	00 10 c0 e5 	strb	r1, [r0]
   14bc4:	04 00 9d e5 	ldr	r0, [sp, #4]
   14bc8:	00 10 9d e5 	ldr	r1, [sp]
   14bcc:	5b 01 00 eb 	bl	#1388 <serial.log.67>
   14bd0:	6e 01 00 eb 	bl	#1464 <arm_assembly_code.hang.68>

serial.log.58:
   14bd4:	00 48 2d e9 	push	{r11, lr}
   14bd8:	0d b0 a0 e1 	mov	r11, sp
   14bdc:	90 d0 4d e2 	sub	sp, sp, #144
   14be0:	00 00 a0 e3 	mov	r0, #0
   14be4:	04 00 8d e5 	str	r0, [sp, #4]
   14be8:	10 00 8d e2 	add	r0, sp, #16
   14bec:	08 00 8d e5 	str	r0, [sp, #8]
   14bf0:	20 00 a0 e3 	mov	r0, #32
   14bf4:	0c 00 8d e5 	str	r0, [sp, #12]
   14bf8:	3c 14 02 e3 	movw	r1, #9276
   14bfc:	01 10 40 e3 	movt	r1, #1
   14c00:	04 00 8d e2 	add	r0, sp, #4
   14c04:	68 01 00 eb 	bl	#1440 <std.fmt.format.69>
   14c08:	b2 00 cd e1 	strh	r0, [sp, #2]
   14c0c:	0b d0 a0 e1 	mov	sp, r11
   14c10:	00 88 bd e8 	pop	{r11, pc}

std.fmt.format.59:
   14c14:	00 48 2d e9 	push	{r11, lr}
   14c18:	0d b0 a0 e1 	mov	r11, sp
   14c1c:	10 d0 4d e2 	sub	sp, sp, #16
   14c20:	08 10 8d e5 	str	r1, [sp, #8]
   14c24:	08 10 9d e5 	ldr	r1, [sp, #8]
   14c28:	68 24 05 e3 	movw	r2, #21608
   14c2c:	03 20 40 e3 	movt	r2, #3
   14c30:	04 10 8d e5 	str	r1, [sp, #4]
   14c34:	02 10 a0 e1 	mov	r1, r2
   14c38:	04 20 9d e5 	ldr	r2, [sp, #4]
   14c3c:	32 ff 2f e1 	blx	r2
   14c40:	b2 00 4b e1 	strh	r0, [r11, #-2]
   14c44:	00 00 a0 e3 	mov	r0, #0
   14c48:	0b d0 a0 e1 	mov	sp, r11
   14c4c:	00 88 bd e8 	pop	{r11, pc}

std.fmt.format.60:
   14c50:	00 48 2d e9 	push	{r11, lr}
   14c54:	0d b0 a0 e1 	mov	r11, sp
   14c58:	10 d0 4d e2 	sub	sp, sp, #16
   14c5c:	08 10 8d e5 	str	r1, [sp, #8]
   14c60:	08 10 9d e5 	ldr	r1, [sp, #8]
   14c64:	a0 24 05 e3 	movw	r2, #21664
   14c68:	03 20 40 e3 	movt	r2, #3
   14c6c:	04 10 8d e5 	str	r1, [sp, #4]
   14c70:	02 10 a0 e1 	mov	r1, r2
   14c74:	04 20 9d e5 	ldr	r2, [sp, #4]
   14c78:	32 ff 2f e1 	blx	r2
   14c7c:	b2 00 4b e1 	strh	r0, [r11, #-2]
   14c80:	00 00 a0 e3 	mov	r0, #0
   14c84:	0b d0 a0 e1 	mov	sp, r11
   14c88:	00 88 bd e8 	pop	{r11, pc}

std.fmt.format.61:
   14c8c:	00 48 2d e9 	push	{r11, lr}
   14c90:	0d b0 a0 e1 	mov	r11, sp
   14c94:	20 d0 4d e2 	sub	sp, sp, #32
   14c98:	0c 10 0b e5 	str	r1, [r11, #-12]
   14c9c:	10 20 8d e5 	str	r2, [sp, #16]
   14ca0:	0c 10 1b e5 	ldr	r1, [r11, #-12]
   14ca4:	cc 24 05 e3 	movw	r2, #21708
   14ca8:	03 20 40 e3 	movt	r2, #3
   14cac:	0c 00 8d e5 	str	r0, [sp, #12]
   14cb0:	08 10 8d e5 	str	r1, [sp, #8]
   14cb4:	02 10 a0 e1 	mov	r1, r2
   14cb8:	08 20 9d e5 	ldr	r2, [sp, #8]
   14cbc:	32 ff 2f e1 	blx	r2
   14cc0:	b2 00 4b e1 	strh	r0, [r11, #-2]
   14cc4:	10 10 9d e5 	ldr	r1, [sp, #16]
   14cc8:	0c 30 1b e5 	ldr	r3, [r11, #-12]
   14ccc:	0d 00 a0 e1 	mov	r0, sp
   14cd0:	03 20 a0 e3 	mov	r2, #3
   14cd4:	00 20 80 e5 	str	r2, [r0]
   14cd8:	d4 24 05 e3 	movw	r2, #21716
   14cdc:	03 20 40 e3 	movt	r2, #3
   14ce0:	0c 00 9d e5 	ldr	r0, [sp, #12]
   14ce4:	3f 01 00 eb 	bl	#1276 <std.fmt.formatType.70>
   14ce8:	b4 00 4b e1 	strh	r0, [r11, #-4]
   14cec:	0c 00 1b e5 	ldr	r0, [r11, #-12]
   14cf0:	e8 14 05 e3 	movw	r1, #21736
   14cf4:	03 10 40 e3 	movt	r1, #3
   14cf8:	0c 20 9d e5 	ldr	r2, [sp, #12]
   14cfc:	04 00 8d e5 	str	r0, [sp, #4]
   14d00:	02 00 a0 e1 	mov	r0, r2
   14d04:	04 30 9d e5 	ldr	r3, [sp, #4]
   14d08:	33 ff 2f e1 	blx	r3
   14d0c:	b6 00 4b e1 	strh	r0, [r11, #-6]
   14d10:	00 00 a0 e3 	mov	r0, #0
   14d14:	0b d0 a0 e1 	mov	sp, r11
   14d18:	00 88 bd e8 	pop	{r11, pc}

std.fmt.format.62:
   14d1c:	00 48 2d e9 	push	{r11, lr}
   14d20:	0d b0 a0 e1 	mov	r11, sp
   14d24:	38 d0 4d e2 	sub	sp, sp, #56
   14d28:	10 10 0b e5 	str	r1, [r11, #-16]
   14d2c:	14 20 0b e5 	str	r2, [r11, #-20]
   14d30:	18 30 0b e5 	str	r3, [r11, #-24]
   14d34:	10 10 1b e5 	ldr	r1, [r11, #-16]
   14d38:	34 25 05 e3 	movw	r2, #21812
   14d3c:	03 20 40 e3 	movt	r2, #3
   14d40:	1c 00 8d e5 	str	r0, [sp, #28]
   14d44:	18 10 8d e5 	str	r1, [sp, #24]
   14d48:	02 10 a0 e1 	mov	r1, r2
   14d4c:	18 20 9d e5 	ldr	r2, [sp, #24]
   14d50:	32 ff 2f e1 	blx	r2
   14d54:	b2 00 4b e1 	strh	r0, [r11, #-2]
   14d58:	14 10 1b e5 	ldr	r1, [r11, #-20]
   14d5c:	10 30 1b e5 	ldr	r3, [r11, #-16]
   14d60:	0d 00 a0 e1 	mov	r0, sp
   14d64:	03 20 a0 e3 	mov	r2, #3
   14d68:	00 20 80 e5 	str	r2, [r0]
   14d6c:	3c 05 05 e3 	movw	r0, #21820
   14d70:	03 00 40 e3 	movt	r0, #3
   14d74:	1c c0 9d e5 	ldr	r12, [sp, #28]
   14d78:	14 00 8d e5 	str	r0, [sp, #20]
   14d7c:	0c 00 a0 e1 	mov	r0, r12
   14d80:	14 e0 9d e5 	ldr	lr, [sp, #20]
   14d84:	10 20 8d e5 	str	r2, [sp, #16]
   14d88:	0e 20 a0 e1 	mov	r2, lr
   14d8c:	2d 01 00 eb 	bl	#1204 <std.fmt.formatType.71>
   14d90:	b4 00 4b e1 	strh	r0, [r11, #-4]
   14d94:	10 00 1b e5 	ldr	r0, [r11, #-16]
   14d98:	50 15 05 e3 	movw	r1, #21840
   14d9c:	03 10 40 e3 	movt	r1, #3
   14da0:	1c 20 9d e5 	ldr	r2, [sp, #28]
   14da4:	0c 00 8d e5 	str	r0, [sp, #12]
   14da8:	02 00 a0 e1 	mov	r0, r2
   14dac:	0c 30 9d e5 	ldr	r3, [sp, #12]
   14db0:	33 ff 2f e1 	blx	r3
   14db4:	b6 00 4b e1 	strh	r0, [r11, #-6]
   14db8:	18 10 1b e5 	ldr	r1, [r11, #-24]
   14dbc:	10 30 1b e5 	ldr	r3, [r11, #-16]
   14dc0:	0d 00 a0 e1 	mov	r0, sp
   14dc4:	10 20 9d e5 	ldr	r2, [sp, #16]
   14dc8:	00 20 80 e5 	str	r2, [r0]
   14dcc:	58 25 05 e3 	movw	r2, #21848
   14dd0:	03 20 40 e3 	movt	r2, #3
   14dd4:	1c 00 9d e5 	ldr	r0, [sp, #28]
   14dd8:	32 01 00 eb 	bl	#1224 <std.fmt.formatType.72>
   14ddc:	b8 00 4b e1 	strh	r0, [r11, #-8]
   14de0:	10 00 1b e5 	ldr	r0, [r11, #-16]
   14de4:	6c 15 05 e3 	movw	r1, #21868
   14de8:	03 10 40 e3 	movt	r1, #3
   14dec:	1c 20 9d e5 	ldr	r2, [sp, #28]
   14df0:	08 00 8d e5 	str	r0, [sp, #8]
   14df4:	02 00 a0 e1 	mov	r0, r2
   14df8:	08 30 9d e5 	ldr	r3, [sp, #8]
   14dfc:	33 ff 2f e1 	blx	r3
   14e00:	ba 00 4b e1 	strh	r0, [r11, #-10]
   14e04:	00 00 a0 e3 	mov	r0, #0
   14e08:	0b d0 a0 e1 	mov	sp, r11
   14e0c:	00 88 bd e8 	pop	{r11, pc}

std.fmt.format.63:
   14e10:	10 4c 2d e9 	push	{r4, r10, r11, lr}
   14e14:	08 b0 8d e2 	add	r11, sp, #8
   14e18:	58 d0 4d e2 	sub	sp, sp, #88
   14e1c:	10 c0 9b e5 	ldr	r12, [r11, #16]
   14e20:	0c e0 9b e5 	ldr	lr, [r11, #12]
   14e24:	08 40 9b e5 	ldr	r4, [r11, #8]
   14e28:	24 10 0b e5 	str	r1, [r11, #-36]
   14e2c:	28 20 0b e5 	str	r2, [r11, #-40]
   14e30:	2c 30 0b e5 	str	r3, [r11, #-44]
   14e34:	24 10 1b e5 	ldr	r1, [r11, #-36]
   14e38:	bc 25 05 e3 	movw	r2, #21948
   14e3c:	03 20 40 e3 	movt	r2, #3
   14e40:	30 00 8d e5 	str	r0, [sp, #48]
   14e44:	2c 10 8d e5 	str	r1, [sp, #44]
   14e48:	02 10 a0 e1 	mov	r1, r2
   14e4c:	2c 20 9d e5 	ldr	r2, [sp, #44]
   14e50:	28 c0 8d e5 	str	r12, [sp, #40]
   14e54:	24 e0 8d e5 	str	lr, [sp, #36]
   14e58:	20 40 8d e5 	str	r4, [sp, #32]
   14e5c:	32 ff 2f e1 	blx	r2
   14e60:	ba 00 4b e1 	strh	r0, [r11, #-10]
   14e64:	28 10 1b e5 	ldr	r1, [r11, #-40]
   14e68:	24 30 1b e5 	ldr	r3, [r11, #-36]
   14e6c:	0d 00 a0 e1 	mov	r0, sp
   14e70:	03 20 a0 e3 	mov	r2, #3
   14e74:	00 20 80 e5 	str	r2, [r0]
   14e78:	c4 05 05 e3 	movw	r0, #21956
   14e7c:	03 00 40 e3 	movt	r0, #3
   14e80:	30 c0 9d e5 	ldr	r12, [sp, #48]
   14e84:	1c 00 8d e5 	str	r0, [sp, #28]
   14e88:	0c 00 a0 e1 	mov	r0, r12
   14e8c:	1c e0 9d e5 	ldr	lr, [sp, #28]
   14e90:	18 20 8d e5 	str	r2, [sp, #24]
   14e94:	0e 20 a0 e1 	mov	r2, lr
   14e98:	1a 01 00 eb 	bl	#1128 <std.fmt.formatType.73>
   14e9c:	bc 00 4b e1 	strh	r0, [r11, #-12]
   14ea0:	24 00 1b e5 	ldr	r0, [r11, #-36]
   14ea4:	d8 15 05 e3 	movw	r1, #21976
   14ea8:	03 10 40 e3 	movt	r1, #3
   14eac:	30 20 9d e5 	ldr	r2, [sp, #48]
   14eb0:	14 00 8d e5 	str	r0, [sp, #20]
   14eb4:	02 00 a0 e1 	mov	r0, r2
   14eb8:	14 30 9d e5 	ldr	r3, [sp, #20]
   14ebc:	33 ff 2f e1 	blx	r3
   14ec0:	be 00 4b e1 	strh	r0, [r11, #-14]
   14ec4:	2c 10 1b e5 	ldr	r1, [r11, #-44]
   14ec8:	24 30 1b e5 	ldr	r3, [r11, #-36]
   14ecc:	0d 00 a0 e1 	mov	r0, sp
   14ed0:	18 20 9d e5 	ldr	r2, [sp, #24]
   14ed4:	00 20 80 e5 	str	r2, [r0]
   14ed8:	e0 25 05 e3 	movw	r2, #21984
   14edc:	03 20 40 e3 	movt	r2, #3
   14ee0:	30 00 9d e5 	ldr	r0, [sp, #48]
   14ee4:	07 01 00 eb 	bl	#1052 <std.fmt.formatType.73>
   14ee8:	b0 01 4b e1 	strh	r0, [r11, #-16]
   14eec:	24 00 1b e5 	ldr	r0, [r11, #-36]
   14ef0:	f4 15 05 e3 	movw	r1, #22004
   14ef4:	03 10 40 e3 	movt	r1, #3
   14ef8:	30 20 9d e5 	ldr	r2, [sp, #48]
   14efc:	10 00 8d e5 	str	r0, [sp, #16]
   14f00:	02 00 a0 e1 	mov	r0, r2
   14f04:	10 30 9d e5 	ldr	r3, [sp, #16]
   14f08:	33 ff 2f e1 	blx	r3
   14f0c:	b2 01 4b e1 	strh	r0, [r11, #-18]
   14f10:	08 10 9b e5 	ldr	r1, [r11, #8]
   14f14:	24 30 1b e5 	ldr	r3, [r11, #-36]
   14f18:	0d 00 a0 e1 	mov	r0, sp
   14f1c:	18 20 9d e5 	ldr	r2, [sp, #24]
   14f20:	00 20 80 e5 	str	r2, [r0]
   14f24:	fc 25 05 e3 	movw	r2, #22012
   14f28:	03 20 40 e3 	movt	r2, #3
   14f2c:	30 00 9d e5 	ldr	r0, [sp, #48]
   14f30:	0c 01 00 eb 	bl	#1072 <std.fmt.formatType.74>
   14f34:	b4 01 4b e1 	strh	r0, [r11, #-20]
   14f38:	24 00 1b e5 	ldr	r0, [r11, #-36]
   14f3c:	10 16 05 e3 	movw	r1, #22032
   14f40:	03 10 40 e3 	movt	r1, #3
   14f44:	30 20 9d e5 	ldr	r2, [sp, #48]
   14f48:	0c 00 8d e5 	str	r0, [sp, #12]
   14f4c:	02 00 a0 e1 	mov	r0, r2
   14f50:	0c 30 9d e5 	ldr	r3, [sp, #12]
   14f54:	33 ff 2f e1 	blx	r3
   14f58:	b6 01 4b e1 	strh	r0, [r11, #-22]
   14f5c:	0c 10 9b e5 	ldr	r1, [r11, #12]
   14f60:	24 30 1b e5 	ldr	r3, [r11, #-36]
   14f64:	0d 00 a0 e1 	mov	r0, sp
   14f68:	18 20 9d e5 	ldr	r2, [sp, #24]
   14f6c:	00 20 80 e5 	str	r2, [r0]
   14f70:	18 26 05 e3 	movw	r2, #22040
   14f74:	03 20 40 e3 	movt	r2, #3
   14f78:	30 00 9d e5 	ldr	r0, [sp, #48]
   14f7c:	e1 00 00 eb 	bl	#900 <std.fmt.formatType.73>
   14f80:	b8 01 4b e1 	strh	r0, [r11, #-24]
   14f84:	24 00 1b e5 	ldr	r0, [r11, #-36]
   14f88:	2c 16 05 e3 	movw	r1, #22060
   14f8c:	03 10 40 e3 	movt	r1, #3
   14f90:	30 20 9d e5 	ldr	r2, [sp, #48]
   14f94:	08 00 8d e5 	str	r0, [sp, #8]
   14f98:	02 00 a0 e1 	mov	r0, r2
   14f9c:	08 30 9d e5 	ldr	r3, [sp, #8]
   14fa0:	33 ff 2f e1 	blx	r3
   14fa4:	ba 01 4b e1 	strh	r0, [r11, #-26]
   14fa8:	10 10 9b e5 	ldr	r1, [r11, #16]
   14fac:	24 30 1b e5 	ldr	r3, [r11, #-36]
   14fb0:	0d 00 a0 e1 	mov	r0, sp
   14fb4:	18 20 9d e5 	ldr	r2, [sp, #24]
   14fb8:	00 20 80 e5 	str	r2, [r0]
   14fbc:	34 26 05 e3 	movw	r2, #22068
   14fc0:	03 20 40 e3 	movt	r2, #3
   14fc4:	30 00 9d e5 	ldr	r0, [sp, #48]
   14fc8:	fe 00 00 eb 	bl	#1016 <std.fmt.formatType.75>
   14fcc:	bc 01 4b e1 	strh	r0, [r11, #-28]
   14fd0:	24 00 1b e5 	ldr	r0, [r11, #-36]
   14fd4:	48 16 05 e3 	movw	r1, #22088
   14fd8:	03 10 40 e3 	movt	r1, #3
   14fdc:	30 20 9d e5 	ldr	r2, [sp, #48]
   14fe0:	04 00 8d e5 	str	r0, [sp, #4]
   14fe4:	02 00 a0 e1 	mov	r0, r2
   14fe8:	04 30 9d e5 	ldr	r3, [sp, #4]
   14fec:	33 ff 2f e1 	blx	r3
   14ff0:	be 01 4b e1 	strh	r0, [r11, #-30]
   14ff4:	00 00 a0 e3 	mov	r0, #0
   14ff8:	08 d0 4b e2 	sub	sp, r11, #8
   14ffc:	10 8c bd e8 	pop	{r4, r10, r11, pc}

std.fmt.formatType.64:
   15000:	00 48 2d e9 	push	{r11, lr}
   15004:	0d b0 a0 e1 	mov	r11, sp
   15008:	18 d0 4d e2 	sub	sp, sp, #24
   1500c:	08 c0 9b e5 	ldr	r12, [r11, #8]
   15010:	04 10 0b e5 	str	r1, [r11, #-4]
   15014:	08 30 0b e5 	str	r3, [r11, #-8]
   15018:	04 10 1b e5 	ldr	r1, [r11, #-4]
   1501c:	08 30 1b e5 	ldr	r3, [r11, #-8]
   15020:	0c 00 8d e5 	str	r0, [sp, #12]
   15024:	08 c0 8d e5 	str	r12, [sp, #8]
   15028:	fe 00 00 eb 	bl	#1016 <std.fmt.formatValue.76>
   1502c:	00 10 a0 e1 	mov	r1, r0
   15030:	ff 2f 0f e3 	movw	r2, #65535
   15034:	02 00 10 e1 	tst	r0, r2
   15038:	04 10 8d e5 	str	r1, [sp, #4]
   1503c:	03 00 00 0a 	beq	#12 <std.fmt.formatType.64+0x50>
   15040:	ff ff ff ea 	b	#-4 <std.fmt.formatType.64+0x44>
   15044:	0c 00 9d e5 	ldr	r0, [sp, #12]
   15048:	fa fb ff eb 	bl	#-4120 <__zig_return_error>
   1504c:	00 00 00 ea 	b	#0 <std.fmt.formatType.64+0x54>
   15050:	ff ff ff ea 	b	#-4 <std.fmt.formatType.64+0x54>
   15054:	04 00 9d e5 	ldr	r0, [sp, #4]
   15058:	0b d0 a0 e1 	mov	sp, r11
   1505c:	00 88 bd e8 	pop	{r11, pc}

std.fmt.formatIntValue:
   15060:	00 48 2d e9 	push	{r11, lr}
   15064:	0d b0 a0 e1 	mov	r11, sp
   15068:	20 d0 4d e2 	sub	sp, sp, #32
   1506c:	08 10 0b e5 	str	r1, [r11, #-8]
   15070:	0c 30 0b e5 	str	r3, [r11, #-12]
   15074:	08 10 1b e5 	ldr	r1, [r11, #-8]
   15078:	04 10 0b e5 	str	r1, [r11, #-4]
   1507c:	04 10 1b e5 	ldr	r1, [r11, #-4]
   15080:	0c 30 1b e5 	ldr	r3, [r11, #-12]
   15084:	0d c0 a0 e1 	mov	r12, sp
   15088:	04 30 8c e5 	str	r3, [r12, #4]
   1508c:	00 20 8c e5 	str	r2, [r12]
   15090:	0a 20 a0 e3 	mov	r2, #10
   15094:	00 30 a0 e3 	mov	r3, #0
   15098:	10 00 8d e5 	str	r0, [sp, #16]
   1509c:	f7 00 00 eb 	bl	#988 <std.fmt.formatInt>
   150a0:	00 10 a0 e1 	mov	r1, r0
   150a4:	ff 2f 0f e3 	movw	r2, #65535
   150a8:	02 00 10 e1 	tst	r0, r2
   150ac:	0c 10 8d e5 	str	r1, [sp, #12]
   150b0:	03 00 00 0a 	beq	#12 <std.fmt.formatIntValue+0x64>
   150b4:	ff ff ff ea 	b	#-4 <std.fmt.formatIntValue+0x58>
   150b8:	10 00 9d e5 	ldr	r0, [sp, #16]
   150bc:	dd fb ff eb 	bl	#-4236 <__zig_return_error>
   150c0:	00 00 00 ea 	b	#0 <std.fmt.formatIntValue+0x68>
   150c4:	ff ff ff ea 	b	#-4 <std.fmt.formatIntValue+0x68>
   150c8:	0c 00 9d e5 	ldr	r0, [sp, #12]
   150cc:	0b d0 a0 e1 	mov	sp, r11
   150d0:	00 88 bd e8 	pop	{r11, pc}

std.fmt.formatText.65:
   150d4:	00 48 2d e9 	push	{r11, lr}
   150d8:	0d b0 a0 e1 	mov	r11, sp
   150dc:	10 d0 4d e2 	sub	sp, sp, #16
   150e0:	04 30 0b e5 	str	r3, [r11, #-4]
   150e4:	04 20 1b e5 	ldr	r2, [r11, #-4]
   150e8:	08 00 8d e5 	str	r0, [sp, #8]
   150ec:	32 ff 2f e1 	blx	r2
   150f0:	00 10 a0 e1 	mov	r1, r0
   150f4:	ff 2f 0f e3 	movw	r2, #65535
   150f8:	02 00 10 e1 	tst	r0, r2
   150fc:	04 10 8d e5 	str	r1, [sp, #4]
   15100:	03 00 00 0a 	beq	#12 <std.fmt.formatText.65+0x40>
   15104:	ff ff ff ea 	b	#-4 <std.fmt.formatText.65+0x34>
   15108:	08 00 9d e5 	ldr	r0, [sp, #8]
   1510c:	c9 fb ff eb 	bl	#-4316 <__zig_return_error>
   15110:	00 00 00 ea 	b	#0 <std.fmt.formatText.65+0x44>
   15114:	ff ff ff ea 	b	#-4 <std.fmt.formatText.65+0x44>
   15118:	04 00 9d e5 	ldr	r0, [sp, #4]
   1511c:	0b d0 a0 e1 	mov	sp, r11
   15120:	00 88 bd e8 	pop	{r11, pc}

arm_assembly_code.hang.66:
   15124:	00 48 2d e9 	push	{r11, lr}
   15128:	0d b0 a0 e1 	mov	r11, sp
   1512c:	fa 00 00 eb 	bl	#1000 <serial.log.77>
   15130:	ff ff ff ea 	b	#-4 <arm_assembly_code.hang.66+0x10>
   15134:	ff ff ff ea 	b	#-4 <arm_assembly_code.hang.66+0x14>
   15138:	97 f8 ff eb 	bl	#-7588 <arm_assembly_code.v7.wfe>
   1513c:	fc ff ff ea 	b	#-16 <arm_assembly_code.hang.66+0x10>

serial.log.67:
   15140:	00 48 2d e9 	push	{r11, lr}
   15144:	0d b0 a0 e1 	mov	r11, sp
   15148:	98 d0 4d e2 	sub	sp, sp, #152
   1514c:	00 20 a0 e3 	mov	r2, #0
   15150:	0c 20 8d e5 	str	r2, [sp, #12]
   15154:	18 20 8d e2 	add	r2, sp, #24
   15158:	10 20 8d e5 	str	r2, [sp, #16]
   1515c:	20 20 a0 e3 	mov	r2, #32
   15160:	14 20 8d e5 	str	r2, [sp, #20]
   15164:	04 00 8d e5 	str	r0, [sp, #4]
   15168:	00 10 8d e5 	str	r1, [sp]
   1516c:	04 20 9d e5 	ldr	r2, [sp, #4]
   15170:	00 30 9d e5 	ldr	r3, [sp]
   15174:	3c 14 02 e3 	movw	r1, #9276
   15178:	01 10 40 e3 	movt	r1, #1
   1517c:	0c 00 8d e2 	add	r0, sp, #12
   15180:	f5 00 00 eb 	bl	#980 <std.fmt.format.78>
   15184:	ba 00 cd e1 	strh	r0, [sp, #10]
   15188:	0b d0 a0 e1 	mov	sp, r11
   1518c:	00 88 bd e8 	pop	{r11, pc}

arm_assembly_code.hang.68:
   15190:	00 48 2d e9 	push	{r11, lr}
   15194:	0d b0 a0 e1 	mov	r11, sp
   15198:	2c 01 00 eb 	bl	#1200 <serial.log.79>
   1519c:	ff ff ff ea 	b	#-4 <arm_assembly_code.hang.68+0x10>
   151a0:	ff ff ff ea 	b	#-4 <arm_assembly_code.hang.68+0x14>
   151a4:	7c f8 ff eb 	bl	#-7696 <arm_assembly_code.v7.wfe>
   151a8:	fc ff ff ea 	b	#-16 <arm_assembly_code.hang.68+0x10>

std.fmt.format.69:
   151ac:	00 48 2d e9 	push	{r11, lr}
   151b0:	0d b0 a0 e1 	mov	r11, sp
   151b4:	10 d0 4d e2 	sub	sp, sp, #16
   151b8:	08 10 8d e5 	str	r1, [sp, #8]
   151bc:	08 10 9d e5 	ldr	r1, [sp, #8]
   151c0:	68 26 05 e3 	movw	r2, #22120
   151c4:	03 20 40 e3 	movt	r2, #3
   151c8:	04 10 8d e5 	str	r1, [sp, #4]
   151cc:	02 10 a0 e1 	mov	r1, r2
   151d0:	04 20 9d e5 	ldr	r2, [sp, #4]
   151d4:	32 ff 2f e1 	blx	r2
   151d8:	b2 00 4b e1 	strh	r0, [r11, #-2]
   151dc:	00 00 a0 e3 	mov	r0, #0
   151e0:	0b d0 a0 e1 	mov	sp, r11
   151e4:	00 88 bd e8 	pop	{r11, pc}

std.fmt.formatType.70:
   151e8:	00 48 2d e9 	push	{r11, lr}
   151ec:	0d b0 a0 e1 	mov	r11, sp
   151f0:	18 d0 4d e2 	sub	sp, sp, #24
   151f4:	08 c0 9b e5 	ldr	r12, [r11, #8]
   151f8:	04 10 0b e5 	str	r1, [r11, #-4]
   151fc:	08 30 0b e5 	str	r3, [r11, #-8]
   15200:	04 10 1b e5 	ldr	r1, [r11, #-4]
   15204:	08 30 1b e5 	ldr	r3, [r11, #-8]
   15208:	0c 00 8d e5 	str	r0, [sp, #12]
   1520c:	08 c0 8d e5 	str	r12, [sp, #8]
   15210:	1e 01 00 eb 	bl	#1144 <std.fmt.formatValue.80>
   15214:	00 10 a0 e1 	mov	r1, r0
   15218:	ff 2f 0f e3 	movw	r2, #65535
   1521c:	02 00 10 e1 	tst	r0, r2
   15220:	04 10 8d e5 	str	r1, [sp, #4]
   15224:	03 00 00 0a 	beq	#12 <std.fmt.formatType.70+0x50>
   15228:	ff ff ff ea 	b	#-4 <std.fmt.formatType.70+0x44>
   1522c:	0c 00 9d e5 	ldr	r0, [sp, #12]
   15230:	80 fb ff eb 	bl	#-4608 <__zig_return_error>
   15234:	00 00 00 ea 	b	#0 <std.fmt.formatType.70+0x54>
   15238:	ff ff ff ea 	b	#-4 <std.fmt.formatType.70+0x54>
   1523c:	04 00 9d e5 	ldr	r0, [sp, #4]
   15240:	0b d0 a0 e1 	mov	sp, r11
   15244:	00 88 bd e8 	pop	{r11, pc}

std.fmt.formatType.71:
   15248:	00 48 2d e9 	push	{r11, lr}
   1524c:	0d b0 a0 e1 	mov	r11, sp
   15250:	18 d0 4d e2 	sub	sp, sp, #24
   15254:	08 c0 9b e5 	ldr	r12, [r11, #8]
   15258:	04 10 0b e5 	str	r1, [r11, #-4]
   1525c:	08 30 0b e5 	str	r3, [r11, #-8]
   15260:	04 10 1b e5 	ldr	r1, [r11, #-4]
   15264:	08 30 1b e5 	ldr	r3, [r11, #-8]
   15268:	0c 00 8d e5 	str	r0, [sp, #12]
   1526c:	08 c0 8d e5 	str	r12, [sp, #8]
   15270:	1c 01 00 eb 	bl	#1136 <std.fmt.formatValue.81>
   15274:	00 10 a0 e1 	mov	r1, r0
   15278:	ff 2f 0f e3 	movw	r2, #65535
   1527c:	02 00 10 e1 	tst	r0, r2
   15280:	04 10 8d e5 	str	r1, [sp, #4]
   15284:	03 00 00 0a 	beq	#12 <std.fmt.formatType.71+0x50>
   15288:	ff ff ff ea 	b	#-4 <std.fmt.formatType.71+0x44>
   1528c:	0c 00 9d e5 	ldr	r0, [sp, #12]
   15290:	68 fb ff eb 	bl	#-4704 <__zig_return_error>
   15294:	00 00 00 ea 	b	#0 <std.fmt.formatType.71+0x54>
   15298:	ff ff ff ea 	b	#-4 <std.fmt.formatType.71+0x54>
   1529c:	04 00 9d e5 	ldr	r0, [sp, #4]
   152a0:	0b d0 a0 e1 	mov	sp, r11
   152a4:	00 88 bd e8 	pop	{r11, pc}

std.fmt.formatType.72:
   152a8:	00 48 2d e9 	push	{r11, lr}
   152ac:	0d b0 a0 e1 	mov	r11, sp
   152b0:	18 d0 4d e2 	sub	sp, sp, #24
   152b4:	08 c0 9b e5 	ldr	r12, [r11, #8]
   152b8:	04 10 0b e5 	str	r1, [r11, #-4]
   152bc:	08 30 0b e5 	str	r3, [r11, #-8]
   152c0:	04 10 1b e5 	ldr	r1, [r11, #-4]
   152c4:	08 30 1b e5 	ldr	r3, [r11, #-8]
   152c8:	0c 00 8d e5 	str	r0, [sp, #12]
   152cc:	08 c0 8d e5 	str	r12, [sp, #8]
   152d0:	1a 01 00 eb 	bl	#1128 <std.fmt.formatValue.82>
   152d4:	00 10 a0 e1 	mov	r1, r0
   152d8:	ff 2f 0f e3 	movw	r2, #65535
   152dc:	02 00 10 e1 	tst	r0, r2
   152e0:	04 10 8d e5 	str	r1, [sp, #4]
   152e4:	03 00 00 0a 	beq	#12 <std.fmt.formatType.72+0x50>
   152e8:	ff ff ff ea 	b	#-4 <std.fmt.formatType.72+0x44>
   152ec:	0c 00 9d e5 	ldr	r0, [sp, #12]
   152f0:	50 fb ff eb 	bl	#-4800 <__zig_return_error>
   152f4:	00 00 00 ea 	b	#0 <std.fmt.formatType.72+0x54>
   152f8:	ff ff ff ea 	b	#-4 <std.fmt.formatType.72+0x54>
   152fc:	04 00 9d e5 	ldr	r0, [sp, #4]
   15300:	0b d0 a0 e1 	mov	sp, r11
   15304:	00 88 bd e8 	pop	{r11, pc}

std.fmt.formatType.73:
   15308:	00 48 2d e9 	push	{r11, lr}
   1530c:	0d b0 a0 e1 	mov	r11, sp
   15310:	18 d0 4d e2 	sub	sp, sp, #24
   15314:	08 c0 9b e5 	ldr	r12, [r11, #8]
   15318:	04 10 0b e5 	str	r1, [r11, #-4]
   1531c:	08 30 0b e5 	str	r3, [r11, #-8]
   15320:	04 10 1b e5 	ldr	r1, [r11, #-4]
   15324:	08 30 1b e5 	ldr	r3, [r11, #-8]
   15328:	0c 00 8d e5 	str	r0, [sp, #12]
   1532c:	08 c0 8d e5 	str	r12, [sp, #8]
   15330:	18 01 00 eb 	bl	#1120 <std.fmt.formatValue.83>
   15334:	00 10 a0 e1 	mov	r1, r0
   15338:	ff 2f 0f e3 	movw	r2, #65535
   1533c:	02 00 10 e1 	tst	r0, r2
   15340:	04 10 8d e5 	str	r1, [sp, #4]
   15344:	03 00 00 0a 	beq	#12 <std.fmt.formatType.73+0x50>
   15348:	ff ff ff ea 	b	#-4 <std.fmt.formatType.73+0x44>
   1534c:	0c 00 9d e5 	ldr	r0, [sp, #12]
   15350:	38 fb ff eb 	bl	#-4896 <__zig_return_error>
   15354:	00 00 00 ea 	b	#0 <std.fmt.formatType.73+0x54>
   15358:	ff ff ff ea 	b	#-4 <std.fmt.formatType.73+0x54>
   1535c:	04 00 9d e5 	ldr	r0, [sp, #4]
   15360:	0b d0 a0 e1 	mov	sp, r11
   15364:	00 88 bd e8 	pop	{r11, pc}

std.fmt.formatType.74:
   15368:	00 48 2d e9 	push	{r11, lr}
   1536c:	0d b0 a0 e1 	mov	r11, sp
   15370:	18 d0 4d e2 	sub	sp, sp, #24
   15374:	08 c0 9b e5 	ldr	r12, [r11, #8]
   15378:	04 10 0b e5 	str	r1, [r11, #-4]
   1537c:	08 30 0b e5 	str	r3, [r11, #-8]
   15380:	04 10 1b e5 	ldr	r1, [r11, #-4]
   15384:	08 30 1b e5 	ldr	r3, [r11, #-8]
   15388:	0c 00 8d e5 	str	r0, [sp, #12]
   1538c:	08 c0 8d e5 	str	r12, [sp, #8]
   15390:	16 01 00 eb 	bl	#1112 <std.fmt.formatValue.84>
   15394:	00 10 a0 e1 	mov	r1, r0
   15398:	ff 2f 0f e3 	movw	r2, #65535
   1539c:	02 00 10 e1 	tst	r0, r2
   153a0:	04 10 8d e5 	str	r1, [sp, #4]
   153a4:	03 00 00 0a 	beq	#12 <std.fmt.formatType.74+0x50>
   153a8:	ff ff ff ea 	b	#-4 <std.fmt.formatType.74+0x44>
   153ac:	0c 00 9d e5 	ldr	r0, [sp, #12]
   153b0:	20 fb ff eb 	bl	#-4992 <__zig_return_error>
   153b4:	00 00 00 ea 	b	#0 <std.fmt.formatType.74+0x54>
   153b8:	ff ff ff ea 	b	#-4 <std.fmt.formatType.74+0x54>
   153bc:	04 00 9d e5 	ldr	r0, [sp, #4]
   153c0:	0b d0 a0 e1 	mov	sp, r11
   153c4:	00 88 bd e8 	pop	{r11, pc}

std.fmt.formatType.75:
   153c8:	00 48 2d e9 	push	{r11, lr}
   153cc:	0d b0 a0 e1 	mov	r11, sp
   153d0:	18 d0 4d e2 	sub	sp, sp, #24
   153d4:	08 c0 9b e5 	ldr	r12, [r11, #8]
   153d8:	04 10 0b e5 	str	r1, [r11, #-4]
   153dc:	08 30 0b e5 	str	r3, [r11, #-8]
   153e0:	04 10 1b e5 	ldr	r1, [r11, #-4]
   153e4:	08 30 1b e5 	ldr	r3, [r11, #-8]
   153e8:	0c 00 8d e5 	str	r0, [sp, #12]
   153ec:	08 c0 8d e5 	str	r12, [sp, #8]
   153f0:	14 01 00 eb 	bl	#1104 <std.fmt.formatValue.85>
   153f4:	00 10 a0 e1 	mov	r1, r0
   153f8:	ff 2f 0f e3 	movw	r2, #65535
   153fc:	02 00 10 e1 	tst	r0, r2
   15400:	04 10 8d e5 	str	r1, [sp, #4]
   15404:	03 00 00 0a 	beq	#12 <std.fmt.formatType.75+0x50>
   15408:	ff ff ff ea 	b	#-4 <std.fmt.formatType.75+0x44>
   1540c:	0c 00 9d e5 	ldr	r0, [sp, #12]
   15410:	08 fb ff eb 	bl	#-5088 <__zig_return_error>
   15414:	00 00 00 ea 	b	#0 <std.fmt.formatType.75+0x54>
   15418:	ff ff ff ea 	b	#-4 <std.fmt.formatType.75+0x54>
   1541c:	04 00 9d e5 	ldr	r0, [sp, #4]
   15420:	0b d0 a0 e1 	mov	sp, r11
   15424:	00 88 bd e8 	pop	{r11, pc}

std.fmt.formatValue.76:
   15428:	00 48 2d e9 	push	{r11, lr}
   1542c:	0d b0 a0 e1 	mov	r11, sp
   15430:	10 d0 4d e2 	sub	sp, sp, #16
   15434:	04 10 0b e5 	str	r1, [r11, #-4]
   15438:	08 30 8d e5 	str	r3, [sp, #8]
   1543c:	04 10 1b e5 	ldr	r1, [r11, #-4]
   15440:	08 30 9d e5 	ldr	r3, [sp, #8]
   15444:	04 00 8d e5 	str	r0, [sp, #4]
   15448:	14 01 00 eb 	bl	#1104 <std.fmt.formatIntValue.86>
   1544c:	00 10 a0 e1 	mov	r1, r0
   15450:	ff 2f 0f e3 	movw	r2, #65535
   15454:	02 00 10 e1 	tst	r0, r2
   15458:	00 10 8d e5 	str	r1, [sp]
   1545c:	03 00 00 0a 	beq	#12 <std.fmt.formatValue.76+0x48>
   15460:	ff ff ff ea 	b	#-4 <std.fmt.formatValue.76+0x3c>
   15464:	04 00 9d e5 	ldr	r0, [sp, #4]
   15468:	f2 fa ff eb 	bl	#-5176 <__zig_return_error>
   1546c:	00 00 00 ea 	b	#0 <std.fmt.formatValue.76+0x4c>
   15470:	ff ff ff ea 	b	#-4 <std.fmt.formatValue.76+0x4c>
   15474:	00 00 9d e5 	ldr	r0, [sp]
   15478:	0b d0 a0 e1 	mov	sp, r11
   1547c:	00 88 bd e8 	pop	{r11, pc}

std.fmt.formatInt:
   15480:	f0 48 2d e9 	push	{r4, r5, r6, r7, r11, lr}
   15484:	10 b0 8d e2 	add	r11, sp, #16
   15488:	28 d0 4d e2 	sub	sp, sp, #40
   1548c:	0c c0 9b e5 	ldr	r12, [r11, #12]
   15490:	08 e0 9b e5 	ldr	lr, [r11, #8]
   15494:	03 40 a0 e1 	mov	r4, r3
   15498:	02 50 a0 e1 	mov	r5, r2
   1549c:	18 10 0b e5 	str	r1, [r11, #-24]
   154a0:	19 20 4b e5 	strb	r2, [r11, #-25]
   154a4:	01 10 03 e2 	and	r1, r3, #1
   154a8:	1a 10 4b e5 	strb	r1, [r11, #-26]
   154ac:	18 10 1b e5 	ldr	r1, [r11, #-24]
   154b0:	14 10 0b e5 	str	r1, [r11, #-20]
   154b4:	14 10 1b e5 	ldr	r1, [r11, #-20]
   154b8:	0c 20 9b e5 	ldr	r2, [r11, #12]
   154bc:	1a 30 5b e5 	ldrb	r3, [r11, #-26]
   154c0:	19 60 5b e5 	ldrb	r6, [r11, #-25]
   154c4:	0d 70 a0 e1 	mov	r7, sp
   154c8:	04 20 87 e5 	str	r2, [r7, #4]
   154cc:	00 e0 87 e5 	str	lr, [r7]
   154d0:	18 00 8d e5 	str	r0, [sp, #24]
   154d4:	06 20 a0 e1 	mov	r2, r6
   154d8:	14 c0 8d e5 	str	r12, [sp, #20]
   154dc:	10 40 8d e5 	str	r4, [sp, #16]
   154e0:	0c 50 8d e5 	str	r5, [sp, #12]
   154e4:	0a 01 00 eb 	bl	#1064 <std.fmt.formatIntUnsigned>
   154e8:	00 10 a0 e1 	mov	r1, r0
   154ec:	ff 2f 0f e3 	movw	r2, #65535
   154f0:	02 00 10 e1 	tst	r0, r2
   154f4:	08 10 8d e5 	str	r1, [sp, #8]
   154f8:	03 00 00 0a 	beq	#12 <std.fmt.formatInt+0x8c>
   154fc:	ff ff ff ea 	b	#-4 <std.fmt.formatInt+0x80>
   15500:	18 00 9d e5 	ldr	r0, [sp, #24]
   15504:	cb fa ff eb 	bl	#-5332 <__zig_return_error>
   15508:	00 00 00 ea 	b	#0 <std.fmt.formatInt+0x90>
   1550c:	ff ff ff ea 	b	#-4 <std.fmt.formatInt+0x90>
   15510:	08 00 9d e5 	ldr	r0, [sp, #8]
   15514:	10 d0 4b e2 	sub	sp, r11, #16
   15518:	f0 88 bd e8 	pop	{r4, r5, r6, r7, r11, pc}

serial.log.77:
   1551c:	00 48 2d e9 	push	{r11, lr}
   15520:	0d b0 a0 e1 	mov	r11, sp
   15524:	90 d0 4d e2 	sub	sp, sp, #144
   15528:	00 00 a0 e3 	mov	r0, #0
   1552c:	04 00 8d e5 	str	r0, [sp, #4]
   15530:	10 00 8d e2 	add	r0, sp, #16
   15534:	08 00 8d e5 	str	r0, [sp, #8]
   15538:	20 00 a0 e3 	mov	r0, #32
   1553c:	0c 00 8d e5 	str	r0, [sp, #12]
   15540:	3c 14 02 e3 	movw	r1, #9276
   15544:	01 10 40 e3 	movt	r1, #1
   15548:	04 00 8d e2 	add	r0, sp, #4
   1554c:	4c 02 00 eb 	bl	#2352 <std.fmt.format.87>
   15550:	b2 00 cd e1 	strh	r0, [sp, #2]
   15554:	0b d0 a0 e1 	mov	sp, r11
   15558:	00 88 bd e8 	pop	{r11, pc}

std.fmt.format.78:
   1555c:	00 48 2d e9 	push	{r11, lr}
   15560:	0d b0 a0 e1 	mov	r11, sp
   15564:	38 d0 4d e2 	sub	sp, sp, #56
   15568:	10 10 0b e5 	str	r1, [r11, #-16]
   1556c:	14 20 0b e5 	str	r2, [r11, #-20]
   15570:	18 30 0b e5 	str	r3, [r11, #-24]
   15574:	10 10 1b e5 	ldr	r1, [r11, #-16]
   15578:	8c 26 05 e3 	movw	r2, #22156
   1557c:	03 20 40 e3 	movt	r2, #3
   15580:	1c 00 8d e5 	str	r0, [sp, #28]
   15584:	18 10 8d e5 	str	r1, [sp, #24]
   15588:	02 10 a0 e1 	mov	r1, r2
   1558c:	18 20 9d e5 	ldr	r2, [sp, #24]
   15590:	32 ff 2f e1 	blx	r2
   15594:	b2 00 4b e1 	strh	r0, [r11, #-2]
   15598:	14 10 1b e5 	ldr	r1, [r11, #-20]
   1559c:	10 30 1b e5 	ldr	r3, [r11, #-16]
   155a0:	0d 00 a0 e1 	mov	r0, sp
   155a4:	03 20 a0 e3 	mov	r2, #3
   155a8:	00 20 80 e5 	str	r2, [r0]
   155ac:	94 06 05 e3 	movw	r0, #22164
   155b0:	03 00 40 e3 	movt	r0, #3
   155b4:	1c c0 9d e5 	ldr	r12, [sp, #28]
   155b8:	14 00 8d e5 	str	r0, [sp, #20]
   155bc:	0c 00 a0 e1 	mov	r0, r12
   155c0:	14 e0 9d e5 	ldr	lr, [sp, #20]
   155c4:	10 20 8d e5 	str	r2, [sp, #16]
   155c8:	0e 20 a0 e1 	mov	r2, lr
   155cc:	3b 02 00 eb 	bl	#2284 <std.fmt.formatType.88>
   155d0:	b4 00 4b e1 	strh	r0, [r11, #-4]
   155d4:	10 00 1b e5 	ldr	r0, [r11, #-16]
   155d8:	a8 16 05 e3 	movw	r1, #22184
   155dc:	03 10 40 e3 	movt	r1, #3
   155e0:	1c 20 9d e5 	ldr	r2, [sp, #28]
   155e4:	0c 00 8d e5 	str	r0, [sp, #12]
   155e8:	02 00 a0 e1 	mov	r0, r2
   155ec:	0c 30 9d e5 	ldr	r3, [sp, #12]
   155f0:	33 ff 2f e1 	blx	r3
   155f4:	b6 00 4b e1 	strh	r0, [r11, #-6]
   155f8:	18 10 1b e5 	ldr	r1, [r11, #-24]
   155fc:	10 30 1b e5 	ldr	r3, [r11, #-16]
   15600:	0d 00 a0 e1 	mov	r0, sp
   15604:	10 20 9d e5 	ldr	r2, [sp, #16]
   15608:	00 20 80 e5 	str	r2, [r0]
   1560c:	b0 26 05 e3 	movw	r2, #22192
   15610:	03 20 40 e3 	movt	r2, #3
   15614:	1c 00 9d e5 	ldr	r0, [sp, #28]
   15618:	28 02 00 eb 	bl	#2208 <std.fmt.formatType.88>
   1561c:	b8 00 4b e1 	strh	r0, [r11, #-8]
   15620:	10 00 1b e5 	ldr	r0, [r11, #-16]
   15624:	c4 16 05 e3 	movw	r1, #22212
   15628:	03 10 40 e3 	movt	r1, #3
   1562c:	1c 20 9d e5 	ldr	r2, [sp, #28]
   15630:	08 00 8d e5 	str	r0, [sp, #8]
   15634:	02 00 a0 e1 	mov	r0, r2
   15638:	08 30 9d e5 	ldr	r3, [sp, #8]
   1563c:	33 ff 2f e1 	blx	r3
   15640:	ba 00 4b e1 	strh	r0, [r11, #-10]
   15644:	00 00 a0 e3 	mov	r0, #0
   15648:	0b d0 a0 e1 	mov	sp, r11
   1564c:	00 88 bd e8 	pop	{r11, pc}

serial.log.79:
   15650:	00 48 2d e9 	push	{r11, lr}
   15654:	0d b0 a0 e1 	mov	r11, sp
   15658:	90 d0 4d e2 	sub	sp, sp, #144
   1565c:	00 00 a0 e3 	mov	r0, #0
   15660:	04 00 8d e5 	str	r0, [sp, #4]
   15664:	10 00 8d e2 	add	r0, sp, #16
   15668:	08 00 8d e5 	str	r0, [sp, #8]
   1566c:	20 00 a0 e3 	mov	r0, #32
   15670:	0c 00 8d e5 	str	r0, [sp, #12]
   15674:	3c 14 02 e3 	movw	r1, #9276
   15678:	01 10 40 e3 	movt	r1, #1
   1567c:	04 00 8d e2 	add	r0, sp, #4
   15680:	26 02 00 eb 	bl	#2200 <std.fmt.format.89>
   15684:	b2 00 cd e1 	strh	r0, [sp, #2]
   15688:	0b d0 a0 e1 	mov	sp, r11
   1568c:	00 88 bd e8 	pop	{r11, pc}

std.fmt.formatValue.80:
   15690:	00 48 2d e9 	push	{r11, lr}
   15694:	0d b0 a0 e1 	mov	r11, sp
   15698:	10 d0 4d e2 	sub	sp, sp, #16
   1569c:	04 10 0b e5 	str	r1, [r11, #-4]
   156a0:	08 30 8d e5 	str	r3, [sp, #8]
   156a4:	04 10 1b e5 	ldr	r1, [r11, #-4]
   156a8:	08 30 9d e5 	ldr	r3, [sp, #8]
   156ac:	04 00 8d e5 	str	r0, [sp, #4]
   156b0:	29 02 00 eb 	bl	#2212 <std.fmt.formatIntValue.90>
   156b4:	00 10 a0 e1 	mov	r1, r0
   156b8:	ff 2f 0f e3 	movw	r2, #65535
   156bc:	02 00 10 e1 	tst	r0, r2
   156c0:	00 10 8d e5 	str	r1, [sp]
   156c4:	03 00 00 0a 	beq	#12 <std.fmt.formatValue.80+0x48>
   156c8:	ff ff ff ea 	b	#-4 <std.fmt.formatValue.80+0x3c>
   156cc:	04 00 9d e5 	ldr	r0, [sp, #4]
   156d0:	58 fa ff eb 	bl	#-5792 <__zig_return_error>
   156d4:	00 00 00 ea 	b	#0 <std.fmt.formatValue.80+0x4c>
   156d8:	ff ff ff ea 	b	#-4 <std.fmt.formatValue.80+0x4c>
   156dc:	00 00 9d e5 	ldr	r0, [sp]
   156e0:	0b d0 a0 e1 	mov	sp, r11
   156e4:	00 88 bd e8 	pop	{r11, pc}

std.fmt.formatValue.81:
   156e8:	00 48 2d e9 	push	{r11, lr}
   156ec:	0d b0 a0 e1 	mov	r11, sp
   156f0:	10 d0 4d e2 	sub	sp, sp, #16
   156f4:	04 10 0b e5 	str	r1, [r11, #-4]
   156f8:	08 30 8d e5 	str	r3, [sp, #8]
   156fc:	04 10 1b e5 	ldr	r1, [r11, #-4]
   15700:	08 30 9d e5 	ldr	r3, [sp, #8]
   15704:	04 00 8d e5 	str	r0, [sp, #4]
   15708:	30 02 00 eb 	bl	#2240 <std.fmt.formatIntValue.91>
   1570c:	00 10 a0 e1 	mov	r1, r0
   15710:	ff 2f 0f e3 	movw	r2, #65535
   15714:	02 00 10 e1 	tst	r0, r2
   15718:	00 10 8d e5 	str	r1, [sp]
   1571c:	03 00 00 0a 	beq	#12 <std.fmt.formatValue.81+0x48>
   15720:	ff ff ff ea 	b	#-4 <std.fmt.formatValue.81+0x3c>
   15724:	04 00 9d e5 	ldr	r0, [sp, #4]
   15728:	42 fa ff eb 	bl	#-5880 <__zig_return_error>
   1572c:	00 00 00 ea 	b	#0 <std.fmt.formatValue.81+0x4c>
   15730:	ff ff ff ea 	b	#-4 <std.fmt.formatValue.81+0x4c>
   15734:	00 00 9d e5 	ldr	r0, [sp]
   15738:	0b d0 a0 e1 	mov	sp, r11
   1573c:	00 88 bd e8 	pop	{r11, pc}

std.fmt.formatValue.82:
   15740:	00 48 2d e9 	push	{r11, lr}
   15744:	0d b0 a0 e1 	mov	r11, sp
   15748:	10 d0 4d e2 	sub	sp, sp, #16
   1574c:	04 10 0b e5 	str	r1, [r11, #-4]
   15750:	08 30 8d e5 	str	r3, [sp, #8]
   15754:	04 10 1b e5 	ldr	r1, [r11, #-4]
   15758:	08 30 9d e5 	ldr	r3, [sp, #8]
   1575c:	04 00 8d e5 	str	r0, [sp, #4]
   15760:	37 02 00 eb 	bl	#2268 <std.fmt.formatIntValue.92>
   15764:	00 10 a0 e1 	mov	r1, r0
   15768:	ff 2f 0f e3 	movw	r2, #65535
   1576c:	02 00 10 e1 	tst	r0, r2
   15770:	00 10 8d e5 	str	r1, [sp]
   15774:	03 00 00 0a 	beq	#12 <std.fmt.formatValue.82+0x48>
   15778:	ff ff ff ea 	b	#-4 <std.fmt.formatValue.82+0x3c>
   1577c:	04 00 9d e5 	ldr	r0, [sp, #4]
   15780:	2c fa ff eb 	bl	#-5968 <__zig_return_error>
   15784:	00 00 00 ea 	b	#0 <std.fmt.formatValue.82+0x4c>
   15788:	ff ff ff ea 	b	#-4 <std.fmt.formatValue.82+0x4c>
   1578c:	00 00 9d e5 	ldr	r0, [sp]
   15790:	0b d0 a0 e1 	mov	sp, r11
   15794:	00 88 bd e8 	pop	{r11, pc}

std.fmt.formatValue.83:
   15798:	00 48 2d e9 	push	{r11, lr}
   1579c:	0d b0 a0 e1 	mov	r11, sp
   157a0:	10 d0 4d e2 	sub	sp, sp, #16
   157a4:	04 10 0b e5 	str	r1, [r11, #-4]
   157a8:	08 30 8d e5 	str	r3, [sp, #8]
   157ac:	04 10 1b e5 	ldr	r1, [r11, #-4]
   157b0:	08 30 9d e5 	ldr	r3, [sp, #8]
   157b4:	04 00 8d e5 	str	r0, [sp, #4]
   157b8:	3e 02 00 eb 	bl	#2296 <std.fmt.formatIntValue.93>
   157bc:	00 10 a0 e1 	mov	r1, r0
   157c0:	ff 2f 0f e3 	movw	r2, #65535
   157c4:	02 00 10 e1 	tst	r0, r2
   157c8:	00 10 8d e5 	str	r1, [sp]
   157cc:	03 00 00 0a 	beq	#12 <std.fmt.formatValue.83+0x48>
   157d0:	ff ff ff ea 	b	#-4 <std.fmt.formatValue.83+0x3c>
   157d4:	04 00 9d e5 	ldr	r0, [sp, #4]
   157d8:	16 fa ff eb 	bl	#-6056 <__zig_return_error>
   157dc:	00 00 00 ea 	b	#0 <std.fmt.formatValue.83+0x4c>
   157e0:	ff ff ff ea 	b	#-4 <std.fmt.formatValue.83+0x4c>
   157e4:	00 00 9d e5 	ldr	r0, [sp]
   157e8:	0b d0 a0 e1 	mov	sp, r11
   157ec:	00 88 bd e8 	pop	{r11, pc}

std.fmt.formatValue.84:
   157f0:	00 48 2d e9 	push	{r11, lr}
   157f4:	0d b0 a0 e1 	mov	r11, sp
   157f8:	10 d0 4d e2 	sub	sp, sp, #16
   157fc:	04 10 0b e5 	str	r1, [r11, #-4]
   15800:	08 30 8d e5 	str	r3, [sp, #8]
   15804:	04 10 1b e5 	ldr	r1, [r11, #-4]
   15808:	08 30 9d e5 	ldr	r3, [sp, #8]
   1580c:	04 00 8d e5 	str	r0, [sp, #4]
   15810:	45 02 00 eb 	bl	#2324 <std.fmt.formatIntValue.94>
   15814:	00 10 a0 e1 	mov	r1, r0
   15818:	ff 2f 0f e3 	movw	r2, #65535
   1581c:	02 00 10 e1 	tst	r0, r2
   15820:	00 10 8d e5 	str	r1, [sp]
   15824:	03 00 00 0a 	beq	#12 <std.fmt.formatValue.84+0x48>
   15828:	ff ff ff ea 	b	#-4 <std.fmt.formatValue.84+0x3c>
   1582c:	04 00 9d e5 	ldr	r0, [sp, #4]
   15830:	00 fa ff eb 	bl	#-6144 <__zig_return_error>
   15834:	00 00 00 ea 	b	#0 <std.fmt.formatValue.84+0x4c>
   15838:	ff ff ff ea 	b	#-4 <std.fmt.formatValue.84+0x4c>
   1583c:	00 00 9d e5 	ldr	r0, [sp]
   15840:	0b d0 a0 e1 	mov	sp, r11
   15844:	00 88 bd e8 	pop	{r11, pc}

std.fmt.formatValue.85:
   15848:	00 48 2d e9 	push	{r11, lr}
   1584c:	0d b0 a0 e1 	mov	r11, sp
   15850:	10 d0 4d e2 	sub	sp, sp, #16
   15854:	04 10 0b e5 	str	r1, [r11, #-4]
   15858:	08 30 8d e5 	str	r3, [sp, #8]
   1585c:	04 10 1b e5 	ldr	r1, [r11, #-4]
   15860:	08 30 9d e5 	ldr	r3, [sp, #8]
   15864:	04 00 8d e5 	str	r0, [sp, #4]
   15868:	4c 02 00 eb 	bl	#2352 <std.fmt.formatIntValue.95>
   1586c:	00 10 a0 e1 	mov	r1, r0
   15870:	ff 2f 0f e3 	movw	r2, #65535
   15874:	02 00 10 e1 	tst	r0, r2
   15878:	00 10 8d e5 	str	r1, [sp]
   1587c:	03 00 00 0a 	beq	#12 <std.fmt.formatValue.85+0x48>
   15880:	ff ff ff ea 	b	#-4 <std.fmt.formatValue.85+0x3c>
   15884:	04 00 9d e5 	ldr	r0, [sp, #4]
   15888:	ea f9 ff eb 	bl	#-6232 <__zig_return_error>
   1588c:	00 00 00 ea 	b	#0 <std.fmt.formatValue.85+0x4c>
   15890:	ff ff ff ea 	b	#-4 <std.fmt.formatValue.85+0x4c>
   15894:	00 00 9d e5 	ldr	r0, [sp]
   15898:	0b d0 a0 e1 	mov	sp, r11
   1589c:	00 88 bd e8 	pop	{r11, pc}

std.fmt.formatIntValue.86:
   158a0:	00 48 2d e9 	push	{r11, lr}
   158a4:	0d b0 a0 e1 	mov	r11, sp
   158a8:	20 d0 4d e2 	sub	sp, sp, #32
   158ac:	08 10 0b e5 	str	r1, [r11, #-8]
   158b0:	0c 30 0b e5 	str	r3, [r11, #-12]
   158b4:	08 10 1b e5 	ldr	r1, [r11, #-8]
   158b8:	04 10 0b e5 	str	r1, [r11, #-4]
   158bc:	04 10 1b e5 	ldr	r1, [r11, #-4]
   158c0:	0c 30 1b e5 	ldr	r3, [r11, #-12]
   158c4:	0d c0 a0 e1 	mov	r12, sp
   158c8:	04 30 8c e5 	str	r3, [r12, #4]
   158cc:	00 20 8c e5 	str	r2, [r12]
   158d0:	0a 20 a0 e3 	mov	r2, #10
   158d4:	00 30 a0 e3 	mov	r3, #0
   158d8:	10 00 8d e5 	str	r0, [sp, #16]
   158dc:	e7 fe ff eb 	bl	#-1124 <std.fmt.formatInt>
   158e0:	00 10 a0 e1 	mov	r1, r0
   158e4:	ff 2f 0f e3 	movw	r2, #65535
   158e8:	02 00 10 e1 	tst	r0, r2
   158ec:	0c 10 8d e5 	str	r1, [sp, #12]
   158f0:	03 00 00 0a 	beq	#12 <std.fmt.formatIntValue.86+0x64>
   158f4:	ff ff ff ea 	b	#-4 <std.fmt.formatIntValue.86+0x58>
   158f8:	10 00 9d e5 	ldr	r0, [sp, #16]
   158fc:	cd f9 ff eb 	bl	#-6348 <__zig_return_error>
   15900:	00 00 00 ea 	b	#0 <std.fmt.formatIntValue.86+0x68>
   15904:	ff ff ff ea 	b	#-4 <std.fmt.formatIntValue.86+0x68>
   15908:	0c 00 9d e5 	ldr	r0, [sp, #12]
   1590c:	0b d0 a0 e1 	mov	sp, r11
   15910:	00 88 bd e8 	pop	{r11, pc}

std.fmt.formatIntUnsigned:
   15914:	f0 48 2d e9 	push	{r4, r5, r6, r7, r11, lr}
   15918:	10 b0 8d e2 	add	r11, sp, #16
   1591c:	f0 d0 4d e2 	sub	sp, sp, #240
   15920:	0c c0 9b e5 	ldr	r12, [r11, #12]
   15924:	08 e0 9b e5 	ldr	lr, [r11, #8]
   15928:	03 40 a0 e1 	mov	r4, r3
   1592c:	02 50 a0 e1 	mov	r5, r2
   15930:	78 10 8d e5 	str	r1, [sp, #120]
   15934:	77 20 cd e5 	strb	r2, [sp, #119]
   15938:	01 10 03 e2 	and	r1, r3, #1
   1593c:	76 10 cd e5 	strb	r1, [sp, #118]
   15940:	77 10 dd e5 	ldrb	r1, [sp, #119]
   15944:	00 20 a0 e3 	mov	r2, #0
   15948:	01 00 51 e3 	cmp	r1, #1
   1594c:	01 20 00 83 	movwhi	r2, #1
   15950:	70 00 8d e5 	str	r0, [sp, #112]
   15954:	02 00 a0 e1 	mov	r0, r2
   15958:	6c c0 8d e5 	str	r12, [sp, #108]
   1595c:	68 e0 8d e5 	str	lr, [sp, #104]
   15960:	64 40 8d e5 	str	r4, [sp, #100]
   15964:	60 50 8d e5 	str	r5, [sp, #96]
   15968:	24 ee ff eb 	bl	#-18288 <std.debug.assert>
   1596c:	aa 0a 0a e3 	movw	r0, #43690
   15970:	aa 0a 4a e3 	movt	r0, #43690
   15974:	14 00 0b e5 	str	r0, [r11, #-20]
   15978:	18 00 0b e5 	str	r0, [r11, #-24]
   1597c:	1c 00 0b e5 	str	r0, [r11, #-28]
   15980:	20 00 0b e5 	str	r0, [r11, #-32]
   15984:	24 00 0b e5 	str	r0, [r11, #-36]
   15988:	28 00 0b e5 	str	r0, [r11, #-40]
   1598c:	2c 00 0b e5 	str	r0, [r11, #-44]
   15990:	30 00 0b e5 	str	r0, [r11, #-48]
   15994:	78 00 9d e5 	ldr	r0, [sp, #120]
   15998:	34 00 0b e5 	str	r0, [r11, #-52]
   1599c:	20 00 a0 e3 	mov	r0, #32
   159a0:	38 00 0b e5 	str	r0, [r11, #-56]
   159a4:	ff ff ff ea 	b	#-4 <std.fmt.formatIntUnsigned+0x94>
   159a8:	ff ff ff ea 	b	#-4 <std.fmt.formatIntUnsigned+0x98>
   159ac:	34 00 1b e5 	ldr	r0, [r11, #-52]
   159b0:	77 10 dd e5 	ldrb	r1, [sp, #119]
   159b4:	01 20 a0 e1 	mov	r2, r1
   159b8:	00 00 51 e3 	cmp	r1, #0
   159bc:	5c 00 8d e5 	str	r0, [sp, #92]
   159c0:	58 20 8d e5 	str	r2, [sp, #88]
   159c4:	69 00 00 0a 	beq	#420 <std.fmt.formatIntUnsigned+0x25c>
   159c8:	5e 00 00 ea 	b	#376 <std.fmt.formatIntUnsigned+0x234>
   159cc:	01 00 00 ea 	b	#4 <std.fmt.formatIntUnsigned+0xc4>
   159d0:	ff ff ff ea 	b	#-4 <std.fmt.formatIntUnsigned+0xc0>
   159d4:	f3 ff ff ea 	b	#-52 <std.fmt.formatIntUnsigned+0x94>
   159d8:	38 00 1b e5 	ldr	r0, [r11, #-56]
   159dc:	21 00 50 e3 	cmp	r0, #33
   159e0:	54 00 8d e5 	str	r0, [sp, #84]
   159e4:	9f 00 00 3a 	blo	#636 <std.fmt.formatIntUnsigned+0x354>
   159e8:	9a 00 00 ea 	b	#616 <std.fmt.formatIntUnsigned+0x344>
   159ec:	00 00 a0 e3 	mov	r0, #0
   159f0:	48 00 0b e5 	str	r0, [r11, #-72]
   159f4:	03 00 00 ea 	b	#12 <std.fmt.formatIntUnsigned+0xf4>
   159f8:	50 00 9d e5 	ldr	r0, [sp, #80]
   159fc:	00 10 90 e5 	ldr	r1, [r0]
   15a00:	48 10 0b e5 	str	r1, [r11, #-72]
   15a04:	ff ff ff ea 	b	#-4 <std.fmt.formatIntUnsigned+0xf4>
   15a08:	48 00 1b e5 	ldr	r0, [r11, #-72]
   15a0c:	40 10 1b e5 	ldr	r1, [r11, #-64]
   15a10:	01 00 50 e1 	cmp	r0, r1
   15a14:	07 00 00 9a 	bls	#28 <std.fmt.formatIntUnsigned+0x124>
   15a18:	ff ff ff ea 	b	#-4 <std.fmt.formatIntUnsigned+0x108>
   15a1c:	48 00 1b e5 	ldr	r0, [r11, #-72]
   15a20:	40 10 1b e5 	ldr	r1, [r11, #-64]
   15a24:	01 20 40 e0 	sub	r2, r0, r1
   15a28:	01 00 50 e1 	cmp	r0, r1
   15a2c:	4c 20 8d e5 	str	r2, [sp, #76]
   15a30:	99 00 00 3a 	blo	#612 <std.fmt.formatIntUnsigned+0x388>
   15a34:	9c 00 00 ea 	b	#624 <std.fmt.formatIntUnsigned+0x398>
   15a38:	00 00 a0 e3 	mov	r0, #0
   15a3c:	4c 00 0b e5 	str	r0, [r11, #-76]
   15a40:	ff ff ff ea 	b	#-4 <std.fmt.formatIntUnsigned+0x130>
   15a44:	4c 00 1b e5 	ldr	r0, [r11, #-76]
   15a48:	38 10 1b e5 	ldr	r1, [r11, #-56]
   15a4c:	01 00 50 e1 	cmp	r0, r1
   15a50:	2e 00 00 9a 	bls	#184 <std.fmt.formatIntUnsigned+0x1fc>
   15a54:	ff ff ff ea 	b	#-4 <std.fmt.formatIntUnsigned+0x144>
   15a58:	68 00 9d e5 	ldr	r0, [sp, #104]
   15a5c:	12 10 d0 e5 	ldrb	r1, [r0, #18]
   15a60:	4d 10 4b e5 	strb	r1, [r11, #-77]
   15a64:	4c 10 1b e5 	ldr	r1, [r11, #-76]
   15a68:	38 20 1b e5 	ldr	r2, [r11, #-56]
   15a6c:	02 30 41 e0 	sub	r3, r1, r2
   15a70:	02 00 51 e1 	cmp	r1, r2
   15a74:	48 30 8d e5 	str	r3, [sp, #72]
   15a78:	8e 00 00 3a 	blo	#568 <std.fmt.formatIntUnsigned+0x3a4>
   15a7c:	91 00 00 ea 	b	#580 <std.fmt.formatIntUnsigned+0x3b4>
   15a80:	ff ff ff ea 	b	#-4 <std.fmt.formatIntUnsigned+0x170>
   15a84:	0c 00 9b e5 	ldr	r0, [r11, #12]
   15a88:	4d 10 4b e2 	sub	r1, r11, #77
   15a8c:	58 10 0b e5 	str	r1, [r11, #-88]
   15a90:	58 10 1b e5 	ldr	r1, [r11, #-88]
   15a94:	60 10 0b e5 	str	r1, [r11, #-96]
   15a98:	01 10 a0 e3 	mov	r1, #1
   15a9c:	5c 10 0b e5 	str	r1, [r11, #-92]
   15aa0:	60 10 4b e2 	sub	r1, r11, #96
   15aa4:	70 20 9d e5 	ldr	r2, [sp, #112]
   15aa8:	44 00 8d e5 	str	r0, [sp, #68]
   15aac:	02 00 a0 e1 	mov	r0, r2
   15ab0:	44 30 9d e5 	ldr	r3, [sp, #68]
   15ab4:	33 ff 2f e1 	blx	r3
   15ab8:	b2 06 4b e1 	strh	r0, [r11, #-98]
   15abc:	54 00 1b e5 	ldr	r0, [r11, #-84]
   15ac0:	01 10 40 e2 	sub	r1, r0, #1
   15ac4:	01 00 50 e3 	cmp	r0, #1
   15ac8:	40 10 8d e5 	str	r1, [sp, #64]
   15acc:	80 00 00 3a 	blo	#512 <std.fmt.formatIntUnsigned+0x3c0>
   15ad0:	83 00 00 ea 	b	#524 <std.fmt.formatIntUnsigned+0x3d0>
   15ad4:	01 00 00 ea 	b	#4 <std.fmt.formatIntUnsigned+0x1cc>
   15ad8:	ff ff ff ea 	b	#-4 <std.fmt.formatIntUnsigned+0x1c8>
   15adc:	e7 ff ff ea 	b	#-100 <std.fmt.formatIntUnsigned+0x16c>
   15ae0:	38 00 1b e5 	ldr	r0, [r11, #-56]
   15ae4:	00 00 50 e3 	cmp	r0, #0
   15ae8:	3c 00 8d e5 	str	r0, [sp, #60]
   15aec:	86 00 00 2a 	bhs	#536 <std.fmt.formatIntUnsigned+0x3f8>
   15af0:	81 00 00 ea 	b	#516 <std.fmt.formatIntUnsigned+0x3e8>
   15af4:	70 00 9d e5 	ldr	r0, [sp, #112]
   15af8:	4e f9 ff eb 	bl	#-6856 <__zig_return_error>
   15afc:	00 00 00 ea 	b	#0 <std.fmt.formatIntUnsigned+0x1f0>
   15b00:	ff ff ff ea 	b	#-4 <std.fmt.formatIntUnsigned+0x1f0>
   15b04:	38 00 9d e5 	ldr	r0, [sp, #56]
   15b08:	10 d0 4b e2 	sub	sp, r11, #16
   15b0c:	f0 88 bd e8 	pop	{r4, r5, r6, r7, r11, pc}
   15b10:	38 00 1b e5 	ldr	r0, [r11, #-56]
   15b14:	4c 10 1b e5 	ldr	r1, [r11, #-76]
   15b18:	01 20 40 e0 	sub	r2, r0, r1
   15b1c:	01 00 50 e1 	cmp	r0, r1
   15b20:	34 20 8d e5 	str	r2, [sp, #52]
   15b24:	9b 00 00 3a 	blo	#620 <std.fmt.formatIntUnsigned+0x484>
   15b28:	9e 00 00 ea 	b	#632 <std.fmt.formatIntUnsigned+0x494>
   15b2c:	70 00 9d e5 	ldr	r0, [sp, #112]
   15b30:	40 f9 ff eb 	bl	#-6912 <__zig_return_error>
   15b34:	00 00 00 ea 	b	#0 <std.fmt.formatIntUnsigned+0x228>
   15b38:	ff ff ff ea 	b	#-4 <std.fmt.formatIntUnsigned+0x228>
   15b3c:	30 00 9d e5 	ldr	r0, [sp, #48]
   15b40:	10 d0 4b e2 	sub	sp, r11, #16
   15b44:	f0 88 bd e8 	pop	{r4, r5, r6, r7, r11, pc}
   15b48:	5c 00 9d e5 	ldr	r0, [sp, #92]
   15b4c:	58 10 9d e5 	ldr	r1, [sp, #88]
   15b50:	d1 02 00 eb 	bl	#2884 <__aeabi_uidivmod>
   15b54:	3c 10 0b e5 	str	r1, [r11, #-60]
   15b58:	38 10 1b e5 	ldr	r1, [r11, #-56]
   15b5c:	01 20 41 e2 	sub	r2, r1, #1
   15b60:	01 00 51 e3 	cmp	r1, #1
   15b64:	2c 20 8d e5 	str	r2, [sp, #44]
   15b68:	04 00 00 3a 	blo	#16 <std.fmt.formatIntUnsigned+0x26c>
   15b6c:	07 00 00 ea 	b	#28 <std.fmt.formatIntUnsigned+0x27c>
   15b70:	4c 02 05 e3 	movw	r0, #21068
   15b74:	03 00 40 e3 	movt	r0, #3
   15b78:	00 10 a0 e3 	mov	r1, #0
   15b7c:	b0 ed ff eb 	bl	#-18752 <panic>
   15b80:	d8 0e 04 e3 	movw	r0, #20184
   15b84:	03 00 40 e3 	movt	r0, #3
   15b88:	00 10 a0 e3 	mov	r1, #0
   15b8c:	ac ed ff eb 	bl	#-18768 <panic>
   15b90:	2c 00 9d e5 	ldr	r0, [sp, #44]
   15b94:	38 00 0b e5 	str	r0, [r11, #-56]
   15b98:	38 10 1b e5 	ldr	r1, [r11, #-56]
   15b9c:	20 00 51 e3 	cmp	r1, #32
   15ba0:	28 10 8d e5 	str	r1, [sp, #40]
   15ba4:	04 00 00 3a 	blo	#16 <std.fmt.formatIntUnsigned+0x2a8>
   15ba8:	ff ff ff ea 	b	#-4 <std.fmt.formatIntUnsigned+0x298>
   15bac:	84 00 05 e3 	movw	r0, #20612
   15bb0:	03 00 40 e3 	movt	r0, #3
   15bb4:	00 10 a0 e3 	mov	r1, #0
   15bb8:	a1 ed ff eb 	bl	#-18812 <panic>
   15bbc:	30 00 4b e2 	sub	r0, r11, #48
   15bc0:	28 10 9d e5 	ldr	r1, [sp, #40]
   15bc4:	01 00 80 e0 	add	r0, r0, r1
   15bc8:	3c 20 1b e5 	ldr	r2, [r11, #-60]
   15bcc:	72 30 ef e6 	uxtb	r3, r2
   15bd0:	03 00 52 e1 	cmp	r2, r3
   15bd4:	24 00 8d e5 	str	r0, [sp, #36]
   15bd8:	20 20 8d e5 	str	r2, [sp, #32]
   15bdc:	0d 00 00 1a 	bne	#52 <std.fmt.formatIntUnsigned+0x304>
   15be0:	ff ff ff ea 	b	#-4 <std.fmt.formatIntUnsigned+0x2d0>
   15be4:	76 10 dd e5 	ldrb	r1, [sp, #118]
   15be8:	20 00 9d e5 	ldr	r0, [sp, #32]
   15bec:	88 01 00 eb 	bl	#1568 <std.fmt.digitToChar>
   15bf0:	24 10 9d e5 	ldr	r1, [sp, #36]
   15bf4:	00 00 c1 e5 	strb	r0, [r1]
   15bf8:	34 00 1b e5 	ldr	r0, [r11, #-52]
   15bfc:	77 20 dd e5 	ldrb	r2, [sp, #119]
   15c00:	02 30 a0 e1 	mov	r3, r2
   15c04:	00 00 52 e3 	cmp	r2, #0
   15c08:	1c 00 8d e5 	str	r0, [sp, #28]
   15c0c:	18 30 8d e5 	str	r3, [sp, #24]
   15c10:	04 00 00 0a 	beq	#16 <std.fmt.formatIntUnsigned+0x314>
   15c14:	07 00 00 ea 	b	#28 <std.fmt.formatIntUnsigned+0x324>
   15c18:	68 00 05 e3 	movw	r0, #20584
   15c1c:	03 00 40 e3 	movt	r0, #3
   15c20:	00 10 a0 e3 	mov	r1, #0
   15c24:	86 ed ff eb 	bl	#-18920 <panic>
   15c28:	28 00 05 e3 	movw	r0, #20520
   15c2c:	03 00 40 e3 	movt	r0, #3
   15c30:	00 10 a0 e3 	mov	r1, #0
   15c34:	82 ed ff eb 	bl	#-18936 <panic>
   15c38:	1c 00 9d e5 	ldr	r0, [sp, #28]
   15c3c:	18 10 9d e5 	ldr	r1, [sp, #24]
   15c40:	21 02 00 eb 	bl	#2180 <__udivsi3>
   15c44:	34 00 0b e5 	str	r0, [r11, #-52]
   15c48:	34 00 1b e5 	ldr	r0, [r11, #-52]
   15c4c:	00 00 50 e3 	cmp	r0, #0
   15c50:	5d ff ff 0a 	beq	#-652 <std.fmt.formatIntUnsigned+0xb8>
   15c54:	5d ff ff ea 	b	#-652 <std.fmt.formatIntUnsigned+0xbc>
   15c58:	84 00 05 e3 	movw	r0, #20612
   15c5c:	03 00 40 e3 	movt	r0, #3
   15c60:	00 10 a0 e3 	mov	r1, #0
   15c64:	76 ed ff eb 	bl	#-18984 <panic>
   15c68:	30 00 4b e2 	sub	r0, r11, #48
   15c6c:	54 10 9d e5 	ldr	r1, [sp, #84]
   15c70:	01 00 80 e0 	add	r0, r0, r1
   15c74:	44 00 0b e5 	str	r0, [r11, #-68]
   15c78:	20 00 61 e2 	rsb	r0, r1, #32
   15c7c:	40 00 0b e5 	str	r0, [r11, #-64]
   15c80:	68 00 9d e5 	ldr	r0, [sp, #104]
   15c84:	08 20 80 e2 	add	r2, r0, #8
   15c88:	0c 30 d0 e5 	ldrb	r3, [r0, #12]
   15c8c:	00 00 53 e3 	cmp	r3, #0
   15c90:	50 20 8d e5 	str	r2, [sp, #80]
   15c94:	57 ff ff 1a 	bne	#-676 <std.fmt.formatIntUnsigned+0xe4>
   15c98:	53 ff ff ea 	b	#-692 <std.fmt.formatIntUnsigned+0xd8>
   15c9c:	d8 0e 04 e3 	movw	r0, #20184
   15ca0:	03 00 40 e3 	movt	r0, #3
   15ca4:	00 10 a0 e3 	mov	r1, #0
   15ca8:	65 ed ff eb 	bl	#-19052 <panic>
   15cac:	4c 00 9d e5 	ldr	r0, [sp, #76]
   15cb0:	4c 00 0b e5 	str	r0, [r11, #-76]
   15cb4:	62 ff ff ea 	b	#-632 <std.fmt.formatIntUnsigned+0x130>
   15cb8:	d8 0e 04 e3 	movw	r0, #20184
   15cbc:	03 00 40 e3 	movt	r0, #3
   15cc0:	00 10 a0 e3 	mov	r1, #0
   15cc4:	5e ed ff eb 	bl	#-19080 <panic>
   15cc8:	48 00 9d e5 	ldr	r0, [sp, #72]
   15ccc:	54 00 0b e5 	str	r0, [r11, #-84]
   15cd0:	6a ff ff ea 	b	#-600 <std.fmt.formatIntUnsigned+0x16c>
   15cd4:	d8 0e 04 e3 	movw	r0, #20184
   15cd8:	03 00 40 e3 	movt	r0, #3
   15cdc:	00 10 a0 e3 	mov	r1, #0
   15ce0:	57 ed ff eb 	bl	#-19108 <panic>
   15ce4:	40 00 9d e5 	ldr	r0, [sp, #64]
   15ce8:	54 00 0b e5 	str	r0, [r11, #-84]
   15cec:	54 10 1b e5 	ldr	r1, [r11, #-84]
   15cf0:	00 00 51 e3 	cmp	r1, #0
   15cf4:	76 ff ff 0a 	beq	#-552 <std.fmt.formatIntUnsigned+0x1c0>
   15cf8:	76 ff ff ea 	b	#-552 <std.fmt.formatIntUnsigned+0x1c4>
   15cfc:	84 00 05 e3 	movw	r0, #20612
   15d00:	03 00 40 e3 	movt	r0, #3
   15d04:	00 10 a0 e3 	mov	r1, #0
   15d08:	4d ed ff eb 	bl	#-19148 <panic>
   15d0c:	3c 00 9d e5 	ldr	r0, [sp, #60]
   15d10:	21 00 50 e3 	cmp	r0, #33
   15d14:	04 00 00 3a 	blo	#16 <std.fmt.formatIntUnsigned+0x418>
   15d18:	ff ff ff ea 	b	#-4 <std.fmt.formatIntUnsigned+0x408>
   15d1c:	84 00 05 e3 	movw	r0, #20612
   15d20:	03 00 40 e3 	movt	r0, #3
   15d24:	00 10 a0 e3 	mov	r1, #0
   15d28:	45 ed ff eb 	bl	#-19180 <panic>
   15d2c:	30 00 4b e2 	sub	r0, r11, #48
   15d30:	6c 00 0b e5 	str	r0, [r11, #-108]
   15d34:	3c 10 9d e5 	ldr	r1, [sp, #60]
   15d38:	68 10 0b e5 	str	r1, [r11, #-104]
   15d3c:	68 20 9d e5 	ldr	r2, [sp, #104]
   15d40:	12 10 d2 e5 	ldrb	r1, [r2, #18]
   15d44:	6c 30 4b e2 	sub	r3, r11, #108
   15d48:	14 00 8d e5 	str	r0, [sp, #20]
   15d4c:	03 00 a0 e1 	mov	r0, r3
   15d50:	8e 01 00 eb 	bl	#1592 <std.mem.set>
   15d54:	0c 00 9b e5 	ldr	r0, [r11, #12]
   15d58:	14 10 9d e5 	ldr	r1, [sp, #20]
   15d5c:	74 10 0b e5 	str	r1, [r11, #-116]
   15d60:	20 20 a0 e3 	mov	r2, #32
   15d64:	70 20 0b e5 	str	r2, [r11, #-112]
   15d68:	74 10 4b e2 	sub	r1, r11, #116
   15d6c:	70 20 9d e5 	ldr	r2, [sp, #112]
   15d70:	10 00 8d e5 	str	r0, [sp, #16]
   15d74:	02 00 a0 e1 	mov	r0, r2
   15d78:	10 30 9d e5 	ldr	r3, [sp, #16]
   15d7c:	33 ff 2f e1 	blx	r3
   15d80:	00 10 a0 e1 	mov	r1, r0
   15d84:	ff 2f 0f e3 	movw	r2, #65535
   15d88:	02 00 10 e1 	tst	r0, r2
   15d8c:	38 10 8d e5 	str	r1, [sp, #56]
   15d90:	57 ff ff 1a 	bne	#-676 <std.fmt.formatIntUnsigned+0x1e0>
   15d94:	59 ff ff ea 	b	#-668 <std.fmt.formatIntUnsigned+0x1ec>
   15d98:	d8 0e 04 e3 	movw	r0, #20184
   15d9c:	03 00 40 e3 	movt	r0, #3
   15da0:	00 10 a0 e3 	mov	r1, #0
   15da4:	26 ed ff eb 	bl	#-19304 <panic>
   15da8:	34 00 9d e5 	ldr	r0, [sp, #52]
   15dac:	21 00 50 e3 	cmp	r0, #33
   15db0:	04 00 00 3a 	blo	#16 <std.fmt.formatIntUnsigned+0x4b4>
   15db4:	ff ff ff ea 	b	#-4 <std.fmt.formatIntUnsigned+0x4a4>
   15db8:	84 00 05 e3 	movw	r0, #20612
   15dbc:	03 00 40 e3 	movt	r0, #3
   15dc0:	00 10 a0 e3 	mov	r1, #0
   15dc4:	1e ed ff eb 	bl	#-19336 <panic>
   15dc8:	30 00 4b e2 	sub	r0, r11, #48
   15dcc:	34 10 9d e5 	ldr	r1, [sp, #52]
   15dd0:	01 00 80 e0 	add	r0, r0, r1
   15dd4:	7c 00 0b e5 	str	r0, [r11, #-124]
   15dd8:	20 00 61 e2 	rsb	r0, r1, #32
   15ddc:	78 00 0b e5 	str	r0, [r11, #-120]
   15de0:	4c 00 1b e5 	ldr	r0, [r11, #-76]
   15de4:	78 20 1b e5 	ldr	r2, [r11, #-120]
   15de8:	00 00 50 e3 	cmp	r0, #0
   15dec:	0c 00 8d e5 	str	r0, [sp, #12]
   15df0:	08 20 8d e5 	str	r2, [sp, #8]
   15df4:	04 00 00 2a 	bhs	#16 <std.fmt.formatIntUnsigned+0x4f8>
   15df8:	ff ff ff ea 	b	#-4 <std.fmt.formatIntUnsigned+0x4e8>
   15dfc:	84 00 05 e3 	movw	r0, #20612
   15e00:	03 00 40 e3 	movt	r0, #3
   15e04:	00 10 a0 e3 	mov	r1, #0
   15e08:	0d ed ff eb 	bl	#-19404 <panic>
   15e0c:	0c 00 9d e5 	ldr	r0, [sp, #12]
   15e10:	08 10 9d e5 	ldr	r1, [sp, #8]
   15e14:	01 00 50 e1 	cmp	r0, r1
   15e18:	04 00 00 9a 	bls	#16 <std.fmt.formatIntUnsigned+0x51c>
   15e1c:	ff ff ff ea 	b	#-4 <std.fmt.formatIntUnsigned+0x50c>
   15e20:	84 00 05 e3 	movw	r0, #20612
   15e24:	03 00 40 e3 	movt	r0, #3
   15e28:	00 10 a0 e3 	mov	r1, #0
   15e2c:	04 ed ff eb 	bl	#-19440 <panic>
   15e30:	7c 00 1b e5 	ldr	r0, [r11, #-124]
   15e34:	7c 00 8d e5 	str	r0, [sp, #124]
   15e38:	0c 00 9d e5 	ldr	r0, [sp, #12]
   15e3c:	80 00 8d e5 	str	r0, [sp, #128]
   15e40:	68 10 9d e5 	ldr	r1, [sp, #104]
   15e44:	12 10 d1 e5 	ldrb	r1, [r1, #18]
   15e48:	7c 00 8d e2 	add	r0, sp, #124
   15e4c:	4f 01 00 eb 	bl	#1340 <std.mem.set>
   15e50:	0c 00 9b e5 	ldr	r0, [r11, #12]
   15e54:	7c 10 4b e2 	sub	r1, r11, #124
   15e58:	70 20 9d e5 	ldr	r2, [sp, #112]
   15e5c:	04 00 8d e5 	str	r0, [sp, #4]
   15e60:	02 00 a0 e1 	mov	r0, r2
   15e64:	04 30 9d e5 	ldr	r3, [sp, #4]
   15e68:	33 ff 2f e1 	blx	r3
   15e6c:	00 10 a0 e1 	mov	r1, r0
   15e70:	ff 2f 0f e3 	movw	r2, #65535
   15e74:	02 00 10 e1 	tst	r0, r2
   15e78:	30 10 8d e5 	str	r1, [sp, #48]
   15e7c:	2a ff ff 1a 	bne	#-856 <std.fmt.formatIntUnsigned+0x218>
   15e80:	2c ff ff ea 	b	#-848 <std.fmt.formatIntUnsigned+0x224>

std.fmt.format.87:
   15e84:	00 48 2d e9 	push	{r11, lr}
   15e88:	0d b0 a0 e1 	mov	r11, sp
   15e8c:	10 d0 4d e2 	sub	sp, sp, #16
   15e90:	08 10 8d e5 	str	r1, [sp, #8]
   15e94:	08 10 9d e5 	ldr	r1, [sp, #8]
   15e98:	0c 27 05 e3 	movw	r2, #22284
   15e9c:	03 20 40 e3 	movt	r2, #3
   15ea0:	04 10 8d e5 	str	r1, [sp, #4]
   15ea4:	02 10 a0 e1 	mov	r1, r2
   15ea8:	04 20 9d e5 	ldr	r2, [sp, #4]
   15eac:	32 ff 2f e1 	blx	r2
   15eb0:	b2 00 4b e1 	strh	r0, [r11, #-2]
   15eb4:	00 00 a0 e3 	mov	r0, #0
   15eb8:	0b d0 a0 e1 	mov	sp, r11
   15ebc:	00 88 bd e8 	pop	{r11, pc}

std.fmt.formatType.88:
   15ec0:	00 48 2d e9 	push	{r11, lr}
   15ec4:	0d b0 a0 e1 	mov	r11, sp
   15ec8:	18 d0 4d e2 	sub	sp, sp, #24
   15ecc:	08 c0 9b e5 	ldr	r12, [r11, #8]
   15ed0:	04 10 0b e5 	str	r1, [r11, #-4]
   15ed4:	08 30 0b e5 	str	r3, [r11, #-8]
   15ed8:	04 10 1b e5 	ldr	r1, [r11, #-4]
   15edc:	08 30 1b e5 	ldr	r3, [r11, #-8]
   15ee0:	0c 00 8d e5 	str	r0, [sp, #12]
   15ee4:	08 c0 8d e5 	str	r12, [sp, #8]
   15ee8:	44 01 00 eb 	bl	#1296 <std.fmt.formatValue.96>
   15eec:	00 10 a0 e1 	mov	r1, r0
   15ef0:	ff 2f 0f e3 	movw	r2, #65535
   15ef4:	02 00 10 e1 	tst	r0, r2
   15ef8:	04 10 8d e5 	str	r1, [sp, #4]
   15efc:	03 00 00 0a 	beq	#12 <std.fmt.formatType.88+0x50>
   15f00:	ff ff ff ea 	b	#-4 <std.fmt.formatType.88+0x44>
   15f04:	0c 00 9d e5 	ldr	r0, [sp, #12]
   15f08:	4a f8 ff eb 	bl	#-7896 <__zig_return_error>
   15f0c:	00 00 00 ea 	b	#0 <std.fmt.formatType.88+0x54>
   15f10:	ff ff ff ea 	b	#-4 <std.fmt.formatType.88+0x54>
   15f14:	04 00 9d e5 	ldr	r0, [sp, #4]
   15f18:	0b d0 a0 e1 	mov	sp, r11
   15f1c:	00 88 bd e8 	pop	{r11, pc}

std.fmt.format.89:
   15f20:	00 48 2d e9 	push	{r11, lr}
   15f24:	0d b0 a0 e1 	mov	r11, sp
   15f28:	10 d0 4d e2 	sub	sp, sp, #16
   15f2c:	08 10 8d e5 	str	r1, [sp, #8]
   15f30:	08 10 9d e5 	ldr	r1, [sp, #8]
   15f34:	44 27 05 e3 	movw	r2, #22340
   15f38:	03 20 40 e3 	movt	r2, #3
   15f3c:	04 10 8d e5 	str	r1, [sp, #4]
   15f40:	02 10 a0 e1 	mov	r1, r2
   15f44:	04 20 9d e5 	ldr	r2, [sp, #4]
   15f48:	32 ff 2f e1 	blx	r2
   15f4c:	b2 00 4b e1 	strh	r0, [r11, #-2]
   15f50:	00 00 a0 e3 	mov	r0, #0
   15f54:	0b d0 a0 e1 	mov	sp, r11
   15f58:	00 88 bd e8 	pop	{r11, pc}

std.fmt.formatIntValue.90:
   15f5c:	00 48 2d e9 	push	{r11, lr}
   15f60:	0d b0 a0 e1 	mov	r11, sp
   15f64:	20 d0 4d e2 	sub	sp, sp, #32
   15f68:	08 10 0b e5 	str	r1, [r11, #-8]
   15f6c:	0c 30 0b e5 	str	r3, [r11, #-12]
   15f70:	08 10 1b e5 	ldr	r1, [r11, #-8]
   15f74:	04 10 0b e5 	str	r1, [r11, #-4]
   15f78:	04 10 1b e5 	ldr	r1, [r11, #-4]
   15f7c:	0c 30 1b e5 	ldr	r3, [r11, #-12]
   15f80:	0d c0 a0 e1 	mov	r12, sp
   15f84:	04 30 8c e5 	str	r3, [r12, #4]
   15f88:	00 20 8c e5 	str	r2, [r12]
   15f8c:	0a 20 a0 e3 	mov	r2, #10
   15f90:	00 30 a0 e3 	mov	r3, #0
   15f94:	10 00 8d e5 	str	r0, [sp, #16]
   15f98:	38 fd ff eb 	bl	#-2848 <std.fmt.formatInt>
   15f9c:	00 10 a0 e1 	mov	r1, r0
   15fa0:	ff 2f 0f e3 	movw	r2, #65535
   15fa4:	02 00 10 e1 	tst	r0, r2
   15fa8:	0c 10 8d e5 	str	r1, [sp, #12]
   15fac:	03 00 00 0a 	beq	#12 <std.fmt.formatIntValue.90+0x64>
   15fb0:	ff ff ff ea 	b	#-4 <std.fmt.formatIntValue.90+0x58>
   15fb4:	10 00 9d e5 	ldr	r0, [sp, #16]
   15fb8:	1e f8 ff eb 	bl	#-8072 <__zig_return_error>
   15fbc:	00 00 00 ea 	b	#0 <std.fmt.formatIntValue.90+0x68>
   15fc0:	ff ff ff ea 	b	#-4 <std.fmt.formatIntValue.90+0x68>
   15fc4:	0c 00 9d e5 	ldr	r0, [sp, #12]
   15fc8:	0b d0 a0 e1 	mov	sp, r11
   15fcc:	00 88 bd e8 	pop	{r11, pc}

std.fmt.formatIntValue.91:
   15fd0:	00 48 2d e9 	push	{r11, lr}
   15fd4:	0d b0 a0 e1 	mov	r11, sp
   15fd8:	20 d0 4d e2 	sub	sp, sp, #32
   15fdc:	08 10 0b e5 	str	r1, [r11, #-8]
   15fe0:	0c 30 0b e5 	str	r3, [r11, #-12]
   15fe4:	08 10 1b e5 	ldr	r1, [r11, #-8]
   15fe8:	04 10 0b e5 	str	r1, [r11, #-4]
   15fec:	04 10 1b e5 	ldr	r1, [r11, #-4]
   15ff0:	0c 30 1b e5 	ldr	r3, [r11, #-12]
   15ff4:	0d c0 a0 e1 	mov	r12, sp
   15ff8:	04 30 8c e5 	str	r3, [r12, #4]
   15ffc:	00 20 8c e5 	str	r2, [r12]
   16000:	10 20 a0 e3 	mov	r2, #16
   16004:	00 30 a0 e3 	mov	r3, #0
   16008:	10 00 8d e5 	str	r0, [sp, #16]
   1600c:	1b fd ff eb 	bl	#-2964 <std.fmt.formatInt>
   16010:	00 10 a0 e1 	mov	r1, r0
   16014:	ff 2f 0f e3 	movw	r2, #65535
   16018:	02 00 10 e1 	tst	r0, r2
   1601c:	0c 10 8d e5 	str	r1, [sp, #12]
   16020:	03 00 00 0a 	beq	#12 <std.fmt.formatIntValue.91+0x64>
   16024:	ff ff ff ea 	b	#-4 <std.fmt.formatIntValue.91+0x58>
   16028:	10 00 9d e5 	ldr	r0, [sp, #16]
   1602c:	01 f8 ff eb 	bl	#-8188 <__zig_return_error>
   16030:	00 00 00 ea 	b	#0 <std.fmt.formatIntValue.91+0x68>
   16034:	ff ff ff ea 	b	#-4 <std.fmt.formatIntValue.91+0x68>
   16038:	0c 00 9d e5 	ldr	r0, [sp, #12]
   1603c:	0b d0 a0 e1 	mov	sp, r11
   16040:	00 88 bd e8 	pop	{r11, pc}

std.fmt.formatIntValue.92:
   16044:	00 48 2d e9 	push	{r11, lr}
   16048:	0d b0 a0 e1 	mov	r11, sp
   1604c:	20 d0 4d e2 	sub	sp, sp, #32
   16050:	08 10 0b e5 	str	r1, [r11, #-8]
   16054:	0c 30 0b e5 	str	r3, [r11, #-12]
   16058:	08 10 1b e5 	ldr	r1, [r11, #-8]
   1605c:	04 10 0b e5 	str	r1, [r11, #-4]
   16060:	04 10 1b e5 	ldr	r1, [r11, #-4]
   16064:	0c 30 1b e5 	ldr	r3, [r11, #-12]
   16068:	0d c0 a0 e1 	mov	r12, sp
   1606c:	04 30 8c e5 	str	r3, [r12, #4]
   16070:	00 20 8c e5 	str	r2, [r12]
   16074:	10 20 a0 e3 	mov	r2, #16
   16078:	00 30 a0 e3 	mov	r3, #0
   1607c:	10 00 8d e5 	str	r0, [sp, #16]
   16080:	fe fc ff eb 	bl	#-3080 <std.fmt.formatInt>
   16084:	00 10 a0 e1 	mov	r1, r0
   16088:	ff 2f 0f e3 	movw	r2, #65535
   1608c:	02 00 10 e1 	tst	r0, r2
   16090:	0c 10 8d e5 	str	r1, [sp, #12]
   16094:	03 00 00 0a 	beq	#12 <std.fmt.formatIntValue.92+0x64>
   16098:	ff ff ff ea 	b	#-4 <std.fmt.formatIntValue.92+0x58>
   1609c:	10 00 9d e5 	ldr	r0, [sp, #16]
   160a0:	e4 f7 ff eb 	bl	#-8304 <__zig_return_error>
   160a4:	00 00 00 ea 	b	#0 <std.fmt.formatIntValue.92+0x68>
   160a8:	ff ff ff ea 	b	#-4 <std.fmt.formatIntValue.92+0x68>
   160ac:	0c 00 9d e5 	ldr	r0, [sp, #12]
   160b0:	0b d0 a0 e1 	mov	sp, r11
   160b4:	00 88 bd e8 	pop	{r11, pc}

std.fmt.formatIntValue.93:
   160b8:	00 48 2d e9 	push	{r11, lr}
   160bc:	0d b0 a0 e1 	mov	r11, sp
   160c0:	20 d0 4d e2 	sub	sp, sp, #32
   160c4:	08 10 0b e5 	str	r1, [r11, #-8]
   160c8:	0c 30 0b e5 	str	r3, [r11, #-12]
   160cc:	08 10 1b e5 	ldr	r1, [r11, #-8]
   160d0:	04 10 0b e5 	str	r1, [r11, #-4]
   160d4:	04 10 1b e5 	ldr	r1, [r11, #-4]
   160d8:	0c 30 1b e5 	ldr	r3, [r11, #-12]
   160dc:	0d c0 a0 e1 	mov	r12, sp
   160e0:	04 30 8c e5 	str	r3, [r12, #4]
   160e4:	00 20 8c e5 	str	r2, [r12]
   160e8:	0a 20 a0 e3 	mov	r2, #10
   160ec:	00 30 a0 e3 	mov	r3, #0
   160f0:	10 00 8d e5 	str	r0, [sp, #16]
   160f4:	e1 fc ff eb 	bl	#-3196 <std.fmt.formatInt>
   160f8:	00 10 a0 e1 	mov	r1, r0
   160fc:	ff 2f 0f e3 	movw	r2, #65535
   16100:	02 00 10 e1 	tst	r0, r2
   16104:	0c 10 8d e5 	str	r1, [sp, #12]
   16108:	03 00 00 0a 	beq	#12 <std.fmt.formatIntValue.93+0x64>
   1610c:	ff ff ff ea 	b	#-4 <std.fmt.formatIntValue.93+0x58>
   16110:	10 00 9d e5 	ldr	r0, [sp, #16]
   16114:	c7 f7 ff eb 	bl	#-8420 <__zig_return_error>
   16118:	00 00 00 ea 	b	#0 <std.fmt.formatIntValue.93+0x68>
   1611c:	ff ff ff ea 	b	#-4 <std.fmt.formatIntValue.93+0x68>
   16120:	0c 00 9d e5 	ldr	r0, [sp, #12]
   16124:	0b d0 a0 e1 	mov	sp, r11
   16128:	00 88 bd e8 	pop	{r11, pc}

std.fmt.formatIntValue.94:
   1612c:	00 48 2d e9 	push	{r11, lr}
   16130:	0d b0 a0 e1 	mov	r11, sp
   16134:	20 d0 4d e2 	sub	sp, sp, #32
   16138:	08 10 0b e5 	str	r1, [r11, #-8]
   1613c:	0c 30 0b e5 	str	r3, [r11, #-12]
   16140:	08 10 1b e5 	ldr	r1, [r11, #-8]
   16144:	04 10 0b e5 	str	r1, [r11, #-4]
   16148:	04 10 1b e5 	ldr	r1, [r11, #-4]
   1614c:	0c 30 1b e5 	ldr	r3, [r11, #-12]
   16150:	0d c0 a0 e1 	mov	r12, sp
   16154:	04 30 8c e5 	str	r3, [r12, #4]
   16158:	00 20 8c e5 	str	r2, [r12]
   1615c:	10 20 a0 e3 	mov	r2, #16
   16160:	00 30 a0 e3 	mov	r3, #0
   16164:	10 00 8d e5 	str	r0, [sp, #16]
   16168:	c4 fc ff eb 	bl	#-3312 <std.fmt.formatInt>
   1616c:	00 10 a0 e1 	mov	r1, r0
   16170:	ff 2f 0f e3 	movw	r2, #65535
   16174:	02 00 10 e1 	tst	r0, r2
   16178:	0c 10 8d e5 	str	r1, [sp, #12]
   1617c:	03 00 00 0a 	beq	#12 <std.fmt.formatIntValue.94+0x64>
   16180:	ff ff ff ea 	b	#-4 <std.fmt.formatIntValue.94+0x58>
   16184:	10 00 9d e5 	ldr	r0, [sp, #16]
   16188:	aa f7 ff eb 	bl	#-8536 <__zig_return_error>
   1618c:	00 00 00 ea 	b	#0 <std.fmt.formatIntValue.94+0x68>
   16190:	ff ff ff ea 	b	#-4 <std.fmt.formatIntValue.94+0x68>
   16194:	0c 00 9d e5 	ldr	r0, [sp, #12]
   16198:	0b d0 a0 e1 	mov	sp, r11
   1619c:	00 88 bd e8 	pop	{r11, pc}

std.fmt.formatIntValue.95:
   161a0:	00 48 2d e9 	push	{r11, lr}
   161a4:	0d b0 a0 e1 	mov	r11, sp
   161a8:	20 d0 4d e2 	sub	sp, sp, #32
   161ac:	08 10 0b e5 	str	r1, [r11, #-8]
   161b0:	0c 30 0b e5 	str	r3, [r11, #-12]
   161b4:	08 10 1b e5 	ldr	r1, [r11, #-8]
   161b8:	04 10 0b e5 	str	r1, [r11, #-4]
   161bc:	04 10 1b e5 	ldr	r1, [r11, #-4]
   161c0:	0c 30 1b e5 	ldr	r3, [r11, #-12]
   161c4:	0d c0 a0 e1 	mov	r12, sp
   161c8:	04 30 8c e5 	str	r3, [r12, #4]
   161cc:	00 20 8c e5 	str	r2, [r12]
   161d0:	10 20 a0 e3 	mov	r2, #16
   161d4:	00 30 a0 e3 	mov	r3, #0
   161d8:	10 00 8d e5 	str	r0, [sp, #16]
   161dc:	a7 fc ff eb 	bl	#-3428 <std.fmt.formatInt>
   161e0:	00 10 a0 e1 	mov	r1, r0
   161e4:	ff 2f 0f e3 	movw	r2, #65535
   161e8:	02 00 10 e1 	tst	r0, r2
   161ec:	0c 10 8d e5 	str	r1, [sp, #12]
   161f0:	03 00 00 0a 	beq	#12 <std.fmt.formatIntValue.95+0x64>
   161f4:	ff ff ff ea 	b	#-4 <std.fmt.formatIntValue.95+0x58>
   161f8:	10 00 9d e5 	ldr	r0, [sp, #16]
   161fc:	8d f7 ff eb 	bl	#-8652 <__zig_return_error>
   16200:	00 00 00 ea 	b	#0 <std.fmt.formatIntValue.95+0x68>
   16204:	ff ff ff ea 	b	#-4 <std.fmt.formatIntValue.95+0x68>
   16208:	0c 00 9d e5 	ldr	r0, [sp, #12]
   1620c:	0b d0 a0 e1 	mov	sp, r11
   16210:	00 88 bd e8 	pop	{r11, pc}

std.fmt.digitToChar:
   16214:	00 48 2d e9 	push	{r11, lr}
   16218:	0d b0 a0 e1 	mov	r11, sp
   1621c:	20 d0 4d e2 	sub	sp, sp, #32
   16220:	01 20 a0 e1 	mov	r2, r1
   16224:	00 30 a0 e1 	mov	r3, r0
   16228:	02 00 4b e5 	strb	r0, [r11, #-2]
   1622c:	01 00 01 e2 	and	r0, r1, #1
   16230:	03 00 4b e5 	strb	r0, [r11, #-3]
   16234:	02 00 5b e5 	ldrb	r0, [r11, #-2]
   16238:	00 10 a0 e3 	mov	r1, #0
   1623c:	00 00 51 e3 	cmp	r1, #0
   16240:	08 00 0b e5 	str	r0, [r11, #-8]
   16244:	0c 00 00 1a 	bne	#48 <std.fmt.digitToChar+0x68>
   16248:	ff ff ff ea 	b	#-4 <std.fmt.digitToChar+0x38>
   1624c:	08 00 1b e5 	ldr	r0, [r11, #-8]
   16250:	70 10 ef e6 	uxtb	r1, r0
   16254:	09 00 51 e3 	cmp	r1, #9
   16258:	07 00 00 8a 	bhi	#28 <std.fmt.digitToChar+0x68>
   1625c:	ff ff ff ea 	b	#-4 <std.fmt.digitToChar+0x4c>
   16260:	02 00 5b e5 	ldrb	r0, [r11, #-2]
   16264:	30 00 80 e2 	add	r0, r0, #48
   16268:	70 10 ef e6 	uxtb	r1, r0
   1626c:	00 00 51 e1 	cmp	r1, r0
   16270:	0c 00 0b e5 	str	r0, [r11, #-12]
   16274:	29 00 00 1a 	bne	#164 <std.fmt.digitToChar+0x10c>
   16278:	2c 00 00 ea 	b	#176 <std.fmt.digitToChar+0x11c>
   1627c:	08 00 1b e5 	ldr	r0, [r11, #-8]
   16280:	70 10 ef e6 	uxtb	r1, r0
   16284:	0a 00 51 e3 	cmp	r1, #10
   16288:	1c 00 00 3a 	blo	#112 <std.fmt.digitToChar+0xec>
   1628c:	ff ff ff ea 	b	#-4 <std.fmt.digitToChar+0x7c>
   16290:	08 00 1b e5 	ldr	r0, [r11, #-8]
   16294:	70 10 ef e6 	uxtb	r1, r0
   16298:	23 00 51 e3 	cmp	r1, #35
   1629c:	17 00 00 8a 	bhi	#92 <std.fmt.digitToChar+0xec>
   162a0:	ff ff ff ea 	b	#-4 <std.fmt.digitToChar+0x90>
   162a4:	02 00 5b e5 	ldrb	r0, [r11, #-2]
   162a8:	03 10 5b e5 	ldrb	r1, [r11, #-3]
   162ac:	01 00 51 e3 	cmp	r1, #1
   162b0:	10 00 8d e5 	str	r0, [sp, #16]
   162b4:	04 00 00 1a 	bne	#16 <std.fmt.digitToChar+0xb8>
   162b8:	ff ff ff ea 	b	#-4 <std.fmt.digitToChar+0xa8>
   162bc:	41 00 a0 e3 	mov	r0, #65
   162c0:	01 00 4b e5 	strb	r0, [r11, #-1]
   162c4:	0c 00 8d e5 	str	r0, [sp, #12]
   162c8:	03 00 00 ea 	b	#12 <std.fmt.digitToChar+0xc8>
   162cc:	61 00 a0 e3 	mov	r0, #97
   162d0:	01 00 4b e5 	strb	r0, [r11, #-1]
   162d4:	0c 00 8d e5 	str	r0, [sp, #12]
   162d8:	ff ff ff ea 	b	#-4 <std.fmt.digitToChar+0xc8>
   162dc:	0c 00 9d e5 	ldr	r0, [sp, #12]
   162e0:	09 10 e0 e3 	mvn	r1, #9
   162e4:	70 00 e1 e6 	uxtab	r0, r1, r0
   162e8:	70 10 ef e6 	uxtb	r1, r0
   162ec:	00 20 a0 e1 	mov	r2, r0
   162f0:	00 00 51 e1 	cmp	r1, r0
   162f4:	08 20 8d e5 	str	r2, [sp, #8]
   162f8:	0f 00 00 1a 	bne	#60 <std.fmt.digitToChar+0x128>
   162fc:	12 00 00 ea 	b	#72 <std.fmt.digitToChar+0x138>
   16300:	ff ff ff ea 	b	#-4 <std.fmt.digitToChar+0xf0>
   16304:	20 00 05 e3 	movw	r0, #20512
   16308:	03 00 40 e3 	movt	r0, #3
   1630c:	00 10 a0 e3 	mov	r1, #0
   16310:	cb eb ff eb 	bl	#-20692 <panic>
   16314:	04 00 9d e5 	ldr	r0, [sp, #4]
   16318:	0b d0 a0 e1 	mov	sp, r11
   1631c:	00 88 bd e8 	pop	{r11, pc}
   16320:	d8 0e 04 e3 	movw	r0, #20184
   16324:	03 00 40 e3 	movt	r0, #3
   16328:	00 10 a0 e3 	mov	r1, #0
   1632c:	c4 eb ff eb 	bl	#-20720 <panic>
   16330:	0c 00 1b e5 	ldr	r0, [r11, #-12]
   16334:	04 00 8d e5 	str	r0, [sp, #4]
   16338:	f5 ff ff ea 	b	#-44 <std.fmt.digitToChar+0x100>
   1633c:	d8 0e 04 e3 	movw	r0, #20184
   16340:	03 00 40 e3 	movt	r0, #3
   16344:	00 10 a0 e3 	mov	r1, #0
   16348:	bd eb ff eb 	bl	#-20748 <panic>
   1634c:	10 00 9d e5 	ldr	r0, [sp, #16]
   16350:	70 10 ef e6 	uxtb	r1, r0
   16354:	08 20 9d e5 	ldr	r2, [sp, #8]
   16358:	72 10 e1 e6 	uxtab	r1, r1, r2
   1635c:	71 30 ef e6 	uxtb	r3, r1
   16360:	01 c0 a0 e1 	mov	r12, r1
   16364:	01 00 53 e1 	cmp	r3, r1
   16368:	00 c0 8d e5 	str	r12, [sp]
   1636c:	04 00 00 0a 	beq	#16 <std.fmt.digitToChar+0x170>
   16370:	ff ff ff ea 	b	#-4 <std.fmt.digitToChar+0x160>
   16374:	d8 0e 04 e3 	movw	r0, #20184
   16378:	03 00 40 e3 	movt	r0, #3
   1637c:	00 10 a0 e3 	mov	r1, #0
   16380:	af eb ff eb 	bl	#-20804 <panic>
   16384:	00 00 9d e5 	ldr	r0, [sp]
   16388:	04 00 8d e5 	str	r0, [sp, #4]
   1638c:	e0 ff ff ea 	b	#-128 <std.fmt.digitToChar+0x100>

std.mem.set:
   16390:	18 d0 4d e2 	sub	sp, sp, #24
   16394:	01 20 a0 e1 	mov	r2, r1
   16398:	0f 10 cd e5 	strb	r1, [sp, #15]
   1639c:	00 10 a0 e3 	mov	r1, #0
   163a0:	14 10 8d e5 	str	r1, [sp, #20]
   163a4:	04 10 90 e5 	ldr	r1, [r0, #4]
   163a8:	08 00 8d e5 	str	r0, [sp, #8]
   163ac:	04 10 8d e5 	str	r1, [sp, #4]
   163b0:	ff ff ff ea 	b	#-4 <std.mem.set+0x24>
   163b4:	14 00 9d e5 	ldr	r0, [sp, #20]
   163b8:	04 10 9d e5 	ldr	r1, [sp, #4]
   163bc:	01 00 50 e1 	cmp	r0, r1
   163c0:	00 00 8d e5 	str	r0, [sp]
   163c4:	0b 00 00 2a 	bhs	#44 <std.mem.set+0x68>
   163c8:	ff ff ff ea 	b	#-4 <std.mem.set+0x3c>
   163cc:	08 00 9d e5 	ldr	r0, [sp, #8]
   163d0:	00 10 90 e5 	ldr	r1, [r0]
   163d4:	00 20 9d e5 	ldr	r2, [sp]
   163d8:	02 10 81 e0 	add	r1, r1, r2
   163dc:	10 10 8d e5 	str	r1, [sp, #16]
   163e0:	10 10 9d e5 	ldr	r1, [sp, #16]
   163e4:	0f 30 dd e5 	ldrb	r3, [sp, #15]
   163e8:	00 30 c1 e5 	strb	r3, [r1]
   163ec:	01 10 82 e2 	add	r1, r2, #1
   163f0:	14 10 8d e5 	str	r1, [sp, #20]
   163f4:	ee ff ff ea 	b	#-72 <std.mem.set+0x24>
   163f8:	18 d0 8d e2 	add	sp, sp, #24
   163fc:	1e ff 2f e1 	bx	lr

std.fmt.formatValue.96:
   16400:	00 48 2d e9 	push	{r11, lr}
   16404:	0d b0 a0 e1 	mov	r11, sp
   16408:	10 d0 4d e2 	sub	sp, sp, #16
   1640c:	04 10 0b e5 	str	r1, [r11, #-4]
   16410:	08 30 8d e5 	str	r3, [sp, #8]
   16414:	04 10 1b e5 	ldr	r1, [r11, #-4]
   16418:	08 30 9d e5 	ldr	r3, [sp, #8]
   1641c:	04 00 8d e5 	str	r0, [sp, #4]
   16420:	0c 00 00 eb 	bl	#48 <std.fmt.formatIntValue.97>
   16424:	00 10 a0 e1 	mov	r1, r0
   16428:	ff 2f 0f e3 	movw	r2, #65535
   1642c:	02 00 10 e1 	tst	r0, r2
   16430:	00 10 8d e5 	str	r1, [sp]
   16434:	03 00 00 0a 	beq	#12 <std.fmt.formatValue.96+0x48>
   16438:	ff ff ff ea 	b	#-4 <std.fmt.formatValue.96+0x3c>
   1643c:	04 00 9d e5 	ldr	r0, [sp, #4]
   16440:	fc f6 ff eb 	bl	#-9232 <__zig_return_error>
   16444:	00 00 00 ea 	b	#0 <std.fmt.formatValue.96+0x4c>
   16448:	ff ff ff ea 	b	#-4 <std.fmt.formatValue.96+0x4c>
   1644c:	00 00 9d e5 	ldr	r0, [sp]
   16450:	0b d0 a0 e1 	mov	sp, r11
   16454:	00 88 bd e8 	pop	{r11, pc}

std.fmt.formatIntValue.97:
   16458:	00 48 2d e9 	push	{r11, lr}
   1645c:	0d b0 a0 e1 	mov	r11, sp
   16460:	20 d0 4d e2 	sub	sp, sp, #32
   16464:	08 10 0b e5 	str	r1, [r11, #-8]
   16468:	0c 30 0b e5 	str	r3, [r11, #-12]
   1646c:	08 10 1b e5 	ldr	r1, [r11, #-8]
   16470:	04 10 0b e5 	str	r1, [r11, #-4]
   16474:	04 10 1b e5 	ldr	r1, [r11, #-4]
   16478:	0c 30 1b e5 	ldr	r3, [r11, #-12]
   1647c:	0d c0 a0 e1 	mov	r12, sp
   16480:	04 30 8c e5 	str	r3, [r12, #4]
   16484:	00 20 8c e5 	str	r2, [r12]
   16488:	0a 20 a0 e3 	mov	r2, #10
   1648c:	00 30 a0 e3 	mov	r3, #0
   16490:	10 00 8d e5 	str	r0, [sp, #16]
   16494:	f9 fb ff eb 	bl	#-4124 <std.fmt.formatInt>
   16498:	00 10 a0 e1 	mov	r1, r0
   1649c:	ff 2f 0f e3 	movw	r2, #65535
   164a0:	02 00 10 e1 	tst	r0, r2
   164a4:	0c 10 8d e5 	str	r1, [sp, #12]
   164a8:	03 00 00 0a 	beq	#12 <std.fmt.formatIntValue.97+0x64>
   164ac:	ff ff ff ea 	b	#-4 <std.fmt.formatIntValue.97+0x58>
   164b0:	10 00 9d e5 	ldr	r0, [sp, #16]
   164b4:	df f6 ff eb 	bl	#-9348 <__zig_return_error>
   164b8:	00 00 00 ea 	b	#0 <std.fmt.formatIntValue.97+0x68>
   164bc:	ff ff ff ea 	b	#-4 <std.fmt.formatIntValue.97+0x68>
   164c0:	0c 00 9d e5 	ldr	r0, [sp, #12]
   164c4:	0b d0 a0 e1 	mov	sp, r11
   164c8:	00 88 bd e8 	pop	{r11, pc}

__udivsi3:
   164cc:	1c d0 4d e2 	sub	sp, sp, #28
   164d0:	04 00 8d e5 	str	r0, [sp, #4]
   164d4:	00 10 8d e5 	str	r1, [sp]
   164d8:	00 00 9d e5 	ldr	r0, [sp]
   164dc:	00 00 50 e3 	cmp	r0, #0
   164e0:	03 00 00 1a 	bne	#12 <__udivsi3+0x28>
   164e4:	ff ff ff ea 	b	#-4 <__udivsi3+0x1c>
   164e8:	00 00 a0 e3 	mov	r0, #0
   164ec:	1c d0 8d e2 	add	sp, sp, #28
   164f0:	1e ff 2f e1 	bx	lr
   164f4:	ff ff ff ea 	b	#-4 <__udivsi3+0x2c>
   164f8:	04 00 9d e5 	ldr	r0, [sp, #4]
   164fc:	00 00 50 e3 	cmp	r0, #0
   16500:	03 00 00 1a 	bne	#12 <__udivsi3+0x48>
   16504:	ff ff ff ea 	b	#-4 <__udivsi3+0x3c>
   16508:	00 00 a0 e3 	mov	r0, #0
   1650c:	1c d0 8d e2 	add	sp, sp, #28
   16510:	1e ff 2f e1 	bx	lr
   16514:	ff ff ff ea 	b	#-4 <__udivsi3+0x4c>
   16518:	00 00 9d e5 	ldr	r0, [sp]
   1651c:	10 0f 6f e1 	clz	r0, r0
   16520:	04 10 9d e5 	ldr	r1, [sp, #4]
   16524:	11 1f 6f e1 	clz	r1, r1
   16528:	01 00 40 e0 	sub	r0, r0, r1
   1652c:	18 00 8d e5 	str	r0, [sp, #24]
   16530:	18 00 9d e5 	ldr	r0, [sp, #24]
   16534:	20 00 50 e3 	cmp	r0, #32
   16538:	03 00 00 3a 	blo	#12 <__udivsi3+0x80>
   1653c:	ff ff ff ea 	b	#-4 <__udivsi3+0x74>
   16540:	00 00 a0 e3 	mov	r0, #0
   16544:	1c d0 8d e2 	add	sp, sp, #28
   16548:	1e ff 2f e1 	bx	lr
   1654c:	ff ff ff ea 	b	#-4 <__udivsi3+0x84>
   16550:	18 00 9d e5 	ldr	r0, [sp, #24]
   16554:	1f 00 50 e3 	cmp	r0, #31
   16558:	03 00 00 1a 	bne	#12 <__udivsi3+0xa0>
   1655c:	ff ff ff ea 	b	#-4 <__udivsi3+0x94>
   16560:	04 00 9d e5 	ldr	r0, [sp, #4]
   16564:	1c d0 8d e2 	add	sp, sp, #28
   16568:	1e ff 2f e1 	bx	lr
   1656c:	ff ff ff ea 	b	#-4 <__udivsi3+0xa4>
   16570:	18 00 9d e5 	ldr	r0, [sp, #24]
   16574:	01 00 80 e2 	add	r0, r0, #1
   16578:	18 00 8d e5 	str	r0, [sp, #24]
   1657c:	04 00 9d e5 	ldr	r0, [sp, #4]
   16580:	18 10 9d e5 	ldr	r1, [sp, #24]
   16584:	20 10 61 e2 	rsb	r1, r1, #32
   16588:	1f 10 01 e2 	and	r1, r1, #31
   1658c:	10 01 a0 e1 	lsl	r0, r0, r1
   16590:	14 00 8d e5 	str	r0, [sp, #20]
   16594:	04 00 9d e5 	ldr	r0, [sp, #4]
   16598:	18 10 9d e5 	ldr	r1, [sp, #24]
   1659c:	1f 10 01 e2 	and	r1, r1, #31
   165a0:	30 01 a0 e1 	lsr	r0, r0, r1
   165a4:	10 00 8d e5 	str	r0, [sp, #16]
   165a8:	00 00 a0 e3 	mov	r0, #0
   165ac:	0c 00 8d e5 	str	r0, [sp, #12]
   165b0:	ff ff ff ea 	b	#-4 <__udivsi3+0xe8>
   165b4:	18 00 9d e5 	ldr	r0, [sp, #24]
   165b8:	00 00 50 e3 	cmp	r0, #0
   165bc:	1c 00 00 0a 	beq	#112 <__udivsi3+0x168>
   165c0:	ff ff ff ea 	b	#-4 <__udivsi3+0xf8>
   165c4:	10 00 9d e5 	ldr	r0, [sp, #16]
   165c8:	80 00 a0 e1 	lsl	r0, r0, #1
   165cc:	14 10 9d e5 	ldr	r1, [sp, #20]
   165d0:	a1 0f 80 e1 	orr	r0, r0, r1, lsr #31
   165d4:	10 00 8d e5 	str	r0, [sp, #16]
   165d8:	14 00 9d e5 	ldr	r0, [sp, #20]
   165dc:	0c 10 9d e5 	ldr	r1, [sp, #12]
   165e0:	80 00 81 e1 	orr	r0, r1, r0, lsl #1
   165e4:	14 00 8d e5 	str	r0, [sp, #20]
   165e8:	00 00 9d e5 	ldr	r0, [sp]
   165ec:	10 10 9d e5 	ldr	r1, [sp, #16]
   165f0:	01 10 e0 e1 	mvn	r1, r1
   165f4:	00 00 81 e0 	add	r0, r1, r0
   165f8:	c0 0f a0 e1 	asr	r0, r0, #31
   165fc:	08 00 8d e5 	str	r0, [sp, #8]
   16600:	08 00 9d e5 	ldr	r0, [sp, #8]
   16604:	01 00 00 e2 	and	r0, r0, #1
   16608:	0c 00 8d e5 	str	r0, [sp, #12]
   1660c:	10 00 9d e5 	ldr	r0, [sp, #16]
   16610:	00 10 9d e5 	ldr	r1, [sp]
   16614:	08 20 9d e5 	ldr	r2, [sp, #8]
   16618:	02 10 01 e0 	and	r1, r1, r2
   1661c:	01 00 40 e0 	sub	r0, r0, r1
   16620:	10 00 8d e5 	str	r0, [sp, #16]
   16624:	18 00 9d e5 	ldr	r0, [sp, #24]
   16628:	01 00 40 e2 	sub	r0, r0, #1
   1662c:	18 00 8d e5 	str	r0, [sp, #24]
   16630:	df ff ff ea 	b	#-132 <__udivsi3+0xe8>
   16634:	14 00 9d e5 	ldr	r0, [sp, #20]
   16638:	0c 10 9d e5 	ldr	r1, [sp, #12]
   1663c:	80 00 81 e1 	orr	r0, r1, r0, lsl #1
   16640:	14 00 8d e5 	str	r0, [sp, #20]
   16644:	14 00 9d e5 	ldr	r0, [sp, #20]
   16648:	1c d0 8d e2 	add	sp, sp, #28
   1664c:	1e ff 2f e1 	bx	lr

__udivmodsi4:
   16650:	00 48 2d e9 	push	{r11, lr}
   16654:	0d b0 a0 e1 	mov	r11, sp
   16658:	10 d0 4d e2 	sub	sp, sp, #16
   1665c:	08 00 8d e5 	str	r0, [sp, #8]
   16660:	04 10 8d e5 	str	r1, [sp, #4]
   16664:	00 20 8d e5 	str	r2, [sp]
   16668:	08 00 9d e5 	ldr	r0, [sp, #8]
   1666c:	04 10 9d e5 	ldr	r1, [sp, #4]
   16670:	95 ff ff eb 	bl	#-428 <__udivsi3>
   16674:	04 00 0b e5 	str	r0, [r11, #-4]
   16678:	00 00 9d e5 	ldr	r0, [sp]
   1667c:	08 10 9d e5 	ldr	r1, [sp, #8]
   16680:	04 20 1b e5 	ldr	r2, [r11, #-4]
   16684:	04 30 9d e5 	ldr	r3, [sp, #4]
   16688:	92 13 61 e0 	mls	r1, r2, r3, r1
   1668c:	00 10 80 e5 	str	r1, [r0]
   16690:	04 00 1b e5 	ldr	r0, [r11, #-4]
   16694:	0b d0 a0 e1 	mov	sp, r11
   16698:	00 88 bd e8 	pop	{r11, pc}

__aeabi_uidivmod:
   1669c:	00 48 2d e9 	push	{r11, lr}
   166a0:	0d b0 a0 e1 	mov	r11, sp
   166a4:	18 d0 4d e2 	sub	sp, sp, #24
   166a8:	04 00 8d e5 	str	r0, [sp, #4]
   166ac:	00 10 8d e5 	str	r1, [sp]
   166b0:	04 00 9d e5 	ldr	r0, [sp, #4]
   166b4:	00 10 9d e5 	ldr	r1, [sp]
   166b8:	08 20 8d e2 	add	r2, sp, #8
   166bc:	04 20 82 e2 	add	r2, r2, #4
   166c0:	e2 ff ff eb 	bl	#-120 <__udivmodsi4>
   166c4:	08 00 8d e5 	str	r0, [sp, #8]
   166c8:	02 0b dd ed  <unknown>
   166cc:	02 0b 4b ed  <unknown>
   166d0:	08 00 1b e5 	ldr	r0, [r11, #-8]
   166d4:	04 10 1b e5 	ldr	r1, [r11, #-4]
   166d8:	0b d0 a0 e1 	mov	sp, r11
   166dc:	00 88 bd e8 	pop	{r11, pc}

__aeabi_memcpy8:
   166e0:	1e 00 00 ea 	b	#120 <memcpy>

__aeabi_memset8:
   166e4:	01 30 a0 e1 	mov	r3, r1
   166e8:	02 10 a0 e1 	mov	r1, r2
   166ec:	03 20 a0 e1 	mov	r2, r3
   166f0:	02 00 00 ea 	b	#8 <memset>

__aeabi_memclr8:
   166f4:	01 20 a0 e1 	mov	r2, r1
   166f8:	00 10 b0 e3 	movs	r1, #0
   166fc:	ff ff ff ea 	b	#-4 <memset>

memset:
   16700:	10 d0 4d e2 	sub	sp, sp, #16
   16704:	01 30 a0 e1 	mov	r3, r1
   16708:	08 00 8d e5 	str	r0, [sp, #8]
   1670c:	07 10 cd e5 	strb	r1, [sp, #7]
   16710:	00 20 8d e5 	str	r2, [sp]
   16714:	00 00 a0 e3 	mov	r0, #0
   16718:	0c 00 8d e5 	str	r0, [sp, #12]
   1671c:	ff ff ff ea 	b	#-4 <memset+0x20>
   16720:	0c 00 9d e5 	ldr	r0, [sp, #12]
   16724:	00 10 9d e5 	ldr	r1, [sp]
   16728:	01 00 50 e1 	cmp	r0, r1
   1672c:	08 00 00 0a 	beq	#32 <memset+0x54>
   16730:	ff ff ff ea 	b	#-4 <memset+0x34>
   16734:	0c 00 9d e5 	ldr	r0, [sp, #12]
   16738:	08 10 9d e5 	ldr	r1, [sp, #8]
   1673c:	07 20 dd e5 	ldrb	r2, [sp, #7]
   16740:	00 20 c1 e7 	strb	r2, [r1, r0]
   16744:	0c 00 9d e5 	ldr	r0, [sp, #12]
   16748:	01 00 80 e2 	add	r0, r0, #1
   1674c:	0c 00 8d e5 	str	r0, [sp, #12]
   16750:	f2 ff ff ea 	b	#-56 <memset+0x20>
   16754:	08 00 9d e5 	ldr	r0, [sp, #8]
   16758:	10 d0 8d e2 	add	sp, sp, #16
   1675c:	1e ff 2f e1 	bx	lr

memcpy:
   16760:	10 d0 4d e2 	sub	sp, sp, #16
   16764:	08 00 8d e5 	str	r0, [sp, #8]
   16768:	04 10 8d e5 	str	r1, [sp, #4]
   1676c:	00 20 8d e5 	str	r2, [sp]
   16770:	00 00 a0 e3 	mov	r0, #0
   16774:	0c 00 8d e5 	str	r0, [sp, #12]
   16778:	ff ff ff ea 	b	#-4 <memcpy+0x1c>
   1677c:	0c 00 9d e5 	ldr	r0, [sp, #12]
   16780:	00 10 9d e5 	ldr	r1, [sp]
   16784:	01 00 50 e1 	cmp	r0, r1
   16788:	09 00 00 0a 	beq	#36 <memcpy+0x54>
   1678c:	ff ff ff ea 	b	#-4 <memcpy+0x30>
   16790:	0c 00 9d e5 	ldr	r0, [sp, #12]
   16794:	08 10 9d e5 	ldr	r1, [sp, #8]
   16798:	04 20 9d e5 	ldr	r2, [sp, #4]
   1679c:	00 20 d2 e7 	ldrb	r2, [r2, r0]
   167a0:	00 20 c1 e7 	strb	r2, [r1, r0]
   167a4:	0c 00 9d e5 	ldr	r0, [sp, #12]
   167a8:	01 00 80 e2 	add	r0, r0, #1
   167ac:	0c 00 8d e5 	str	r0, [sp, #12]
   167b0:	f1 ff ff ea 	b	#-60 <memcpy+0x1c>
   167b4:	08 00 9d e5 	ldr	r0, [sp, #8]
   167b8:	10 d0 8d e2 	add	sp, sp, #16
   167bc:	1e ff 2f e1 	bx	lr
Sections:
Idx Name          Size      Address          Type
  0               00000000 0000000000000000 
  1 .text         000067c0 0000000000010000 TEXT 
  2 .ARM.exidx    00000010 00000000000167c0 
  3 .rodata       0003c5c6 0000000000017000 DATA 
  4 .bss          00001080 0000000000054000 BSS
  5 .debug_loc    0000090d 0000000000000000 
  6 .debug_macinfo 00000003 0000000000000000 
  7 .debug_pubnames 00003457 0000000000000000 
  8 .debug_pubtypes 00000932 0000000000000000 
  9 .ARM.attributes 00000038 0000000000000000 
 10 .debug_frame  00003348 0000000000000000 
 11 .comment      00000012 0000000000000000 
 12 .symtab       000016c0 0000000000000000 
 13 .shstrtab     00000099 0000000000000000 
 14 .strtab       00001806 0000000000000000 
SYMBOL TABLE:
00000000         *UND*		 00000000 
00000000 l    df *ABS*		 00000000 zig-bare-metal-raspberry-pi
00010000         .text		 00000000 $a.0
00011000         .text		 00000000 $a.1
00011020         .text		 00000000 $a.2
00012698         .text		 00000000 $a.4
00012870         .text		 00000000 $a.6
00012688         .text		 00000000 $d.3
00012860         .text		 00000000 $d.5
00011d48 l     F .text		 000000e4 ScreenActivity.init
00011e3c l     F .text		 000002ac ScreenActivity.update
00011e2c l     F .text		 00000010 SerialActivity.init
000120e8 l     F .text		 0000008c SerialActivity.update
00035068 l       .rodata		 00000008 __unnamed_1
00034f40 l       .rodata		 00000008 __unnamed_10
00034f94 l       .rodata		 00000005 __unnamed_100
00034fa4 l       .rodata		 0000000f __unnamed_101
00034fbc l       .rodata		 0000000b __unnamed_102
00035008 l       .rodata		 00000018 __unnamed_103
00035770 l       .rodata		 00000010 __unnamed_104
00035030 l       .rodata		 00000011 __unnamed_105
0003504c l       .rodata		 0000001b __unnamed_106
00035070 l       .rodata		 00000013 __unnamed_107
0003508c l       .rodata		 00000023 __unnamed_109
00034f4c l       .rodata		 00000008 __unnamed_11
000350d4 l       .rodata		 0000004a __unnamed_110
00035128 l       .rodata		 0000002b __unnamed_111
00035178 l       .rodata		 00000001 __unnamed_112
00035184 l       .rodata		 00000014 __unnamed_113
000351a0 l       .rodata		 0000003d __unnamed_114
000351e8 l       .rodata		 0000002f __unnamed_115
00035220 l       .rodata		 0000002c __unnamed_118
00034f64 l       .rodata		 00000008 __unnamed_12
00035254 l       .rodata		 00000024 __unnamed_121
00035280 l       .rodata		 00000033 __unnamed_122
00035758 l       .rodata		 00000008 __unnamed_123
000352fc l       .rodata		 0000002f __unnamed_124
00035334 l       .rodata		 00000039 __unnamed_125
00035378 l       .rodata		 00000037 __unnamed_126
00035428 l       .rodata		 0000003d __unnamed_127
00035470 l       .rodata		 0000002f __unnamed_128
000354a8 l       .rodata		 00000022 __unnamed_129
00034f6c l       .rodata		 00000008 __unnamed_13
000354f0 l       .rodata		 00000041 __unnamed_130
00035574 l       .rodata		 00000045 __unnamed_131
00035650 l       .rodata		 00000017 __unnamed_132
00035670 l       .rodata		 00000019 __unnamed_133
000356cc l       .rodata		 0000003d __unnamed_134
00035714 l       .rodata		 0000002f __unnamed_135
00034f74 l       .rodata		 00000008 __unnamed_14
00034f80 l       .rodata		 00000008 __unnamed_15
00034f8c l       .rodata		 00000008 __unnamed_16
00034f9c l       .rodata		 00000008 __unnamed_17
00034fb4 l       .rodata		 00000008 __unnamed_18
00034fc8 l       .rodata		 00000008 __unnamed_19
00034ed8 l       .rodata		 00000008 __unnamed_2
00034fd0 l       .rodata		 00000014 __unnamed_20
00034fe4 l       .rodata		 00000008 __unnamed_21
00034fec l       .rodata		 00000014 __unnamed_22
00035000 l       .rodata		 00000008 __unnamed_23
00035028 l       .rodata		 00000008 __unnamed_24
00035044 l       .rodata		 00000008 __unnamed_25
000350b0 l       .rodata		 00000008 __unnamed_26
000350b8 l       .rodata		 00000014 __unnamed_27
000350cc l       .rodata		 00000008 __unnamed_28
00035120 l       .rodata		 00000008 __unnamed_29
00035084 l       .rodata		 00000008 __unnamed_3
00035154 l       .rodata		 00000008 __unnamed_30
0003515c l       .rodata		 00000014 __unnamed_31
00035170 l       .rodata		 00000008 __unnamed_32
0003517c l       .rodata		 00000008 __unnamed_33
00035198 l       .rodata		 00000008 __unnamed_34
000351e0 l       .rodata		 00000008 __unnamed_35
00035218 l       .rodata		 00000008 __unnamed_36
0003524c l       .rodata		 00000008 __unnamed_37
00035278 l       .rodata		 00000008 __unnamed_38
000352b4 l       .rodata		 00000008 __unnamed_39
00035020 l       .rodata		 00000008 __unnamed_4
000352bc l       .rodata		 00000008 __unnamed_40
000352c4 l       .rodata		 00000014 __unnamed_41
000352d8 l       .rodata		 00000008 __unnamed_42
000352e0 l       .rodata		 00000014 __unnamed_43
000352f4 l       .rodata		 00000008 __unnamed_44
0003532c l       .rodata		 00000008 __unnamed_45
00035370 l       .rodata		 00000008 __unnamed_46
000353b0 l       .rodata		 00000008 __unnamed_47
000353b8 l       .rodata		 00000014 __unnamed_48
000353cc l       .rodata		 00000008 __unnamed_49
0001702c l       .rodata		 0001deaa __unnamed_5
000353d4 l       .rodata		 00000014 __unnamed_50
000353e8 l       .rodata		 00000008 __unnamed_51
000353f0 l       .rodata		 00000014 __unnamed_52
00035404 l       .rodata		 00000008 __unnamed_53
0003540c l       .rodata		 00000014 __unnamed_54
00035420 l       .rodata		 00000008 __unnamed_55
00035468 l       .rodata		 00000008 __unnamed_56
000354a0 l       .rodata		 00000008 __unnamed_57
000354cc l       .rodata		 00000008 __unnamed_58
000354d4 l       .rodata		 00000014 __unnamed_59
00034f00 l       .rodata		 00000008 __unnamed_6
000354e8 l       .rodata		 00000008 __unnamed_60
00035534 l       .rodata		 00000008 __unnamed_61
0003553c l       .rodata		 00000014 __unnamed_62
00035550 l       .rodata		 00000008 __unnamed_63
00035558 l       .rodata		 00000014 __unnamed_64
0003556c l       .rodata		 00000008 __unnamed_65
000355bc l       .rodata		 00000008 __unnamed_66
000355c4 l       .rodata		 00000014 __unnamed_67
000355d8 l       .rodata		 00000008 __unnamed_68
000355e0 l       .rodata		 00000014 __unnamed_69
00034f10 l       .rodata		 00000008 __unnamed_7
000355f4 l       .rodata		 00000008 __unnamed_70
000355fc l       .rodata		 00000014 __unnamed_71
00035610 l       .rodata		 00000008 __unnamed_72
00035618 l       .rodata		 00000014 __unnamed_73
0003562c l       .rodata		 00000008 __unnamed_74
00035634 l       .rodata		 00000014 __unnamed_75
00035648 l       .rodata		 00000008 __unnamed_76
00035668 l       .rodata		 00000008 __unnamed_77
0003568c l       .rodata		 00000008 __unnamed_78
00035694 l       .rodata		 00000014 __unnamed_79
00034f24 l       .rodata		 00000008 __unnamed_8
000356a8 l       .rodata		 00000008 __unnamed_80
000356b0 l       .rodata		 00000014 __unnamed_81
000356c4 l       .rodata		 00000008 __unnamed_82
0003570c l       .rodata		 00000008 __unnamed_83
00035744 l       .rodata		 00000008 __unnamed_84
00035760 l       .rodata		 00000010 __unnamed_85
00034ee0 l       .rodata		 0000001e __unnamed_88
00034f08 l       .rodata		 00000005 __unnamed_89
00034f34 l       .rodata		 00000008 __unnamed_9
00034f18 l       .rodata		 00000009 __unnamed_90
00034f2c l       .rodata		 00000007 __unnamed_91
00034f3c l       .rodata		 00000002 __unnamed_92
00034f48 l       .rodata		 00000001 __unnamed_94
00034f54 l       .rodata		 0000000d __unnamed_95
00035754 l       .rodata		 00000004 __unnamed_96
0003574c l       .rodata		 00000004 __unnamed_97
00034f7c l       .rodata		 00000002 __unnamed_98
00034f88 l       .rodata		 00000002 __unnamed_99
00014038 l     F .text		 00000050 __zig_return_error
00054070 l       .bss		 00000001 already_panicking
000138d8 l     F .text		 00000008 arm_assembly_code.cntpct32
00013310 l     F .text		 00000018 arm_assembly_code.cpsr
00013c30 l     F .text		 00000070 arm_assembly_code.delay
000142f4 l     F .text		 00000008 arm_assembly_code.dsbSt
0001234c l     F .text		 0000001c arm_assembly_code.hang
00013340 l     F .text		 0000001c arm_assembly_code.hang.14
000140fc l     F .text		 0000001c arm_assembly_code.hang.33
00014158 l     F .text		 0000001c arm_assembly_code.hang.35
000123b4 l     F .text		 0000001c arm_assembly_code.hang.5
00015124 l     F .text		 0000001c arm_assembly_code.hang.66
00015190 l     F .text		 0000001c arm_assembly_code.hang.68
0001391c l     F .text		 00000064 arm_assembly_code.io
0001425c l     F .text		 00000064 arm_assembly_code.io.37
00011258 l     F .text		 0000004c arm_assembly_code.panicf
00013238 l     F .text		 00000040 arm_assembly_code.panicf.11
00013650 l     F .text		 00000040 arm_assembly_code.panicf.19
00013874 l     F .text		 00000064 arm_assembly_code.panicf.21
00014210 l     F .text		 0000004c arm_assembly_code.panicf.36
000142fc l     F .text		 00000054 arm_assembly_code.panicf.38
00014350 l     F .text		 00000074 arm_assembly_code.panicf.39
000146bc l     F .text		 00000040 arm_assembly_code.panicf.47
00014b80 l     F .text		 00000054 arm_assembly_code.panicf.57
00012a38 l     F .text		 00000040 arm_assembly_code.panicf.7
00013328 l     F .text		 00000018 arm_assembly_code.sctlr
00012d64 l     F .text		 00000058 arm_assembly_code.seconds
0001143c l     F .text		 00000058 arm_assembly_code.setBssToZero
00011424 l     F .text		 00000018 arm_assembly_code.setVectorBaseAddressRegister
000132f8 l     F .text		 00000018 arm_assembly_code.spsr
0001339c l     F .text		 00000008 arm_assembly_code.v7.wfe
00017024 l       .rodata		 00000004 assert
00017028 l       .rodata		 00000004 assert.1
00054074 l       .bss		 00000004 buf_index
00035750 l       .rodata		 00000004 color_yellow
00010018         .text		 00000000 core_0
000112d4         .text		 00000000 delay
000112dc         .text		 00000000 delay_0
000112d8         .text		 00000000 delay_x
00012194 l     F .text		 000000d8 exceptionHandler
00054071 l       .bss		 00000001 exception_active
00011000         .text		 00000000 exception_vector_table
00054000 l       .bss		 0000004c fb
00013ca0 l     F .text		 00000198 gpio.IoArray.write
00013e38 l     F .text		 000001b0 gpio.IoArray.write.32
0001467c l     F .text		 00000040 gpio.rangeCheck
000134d8 l     F .text		 00000028 gpio.setPinFunction
00013474 l     F .text		 00000064 gpio.setPinPull
000123d0 l     F .text		 00000030 gpio.useAsAlt5
00017020 l       .rodata		 00000004 hex
00017000 l       .rodata		 00000001 is_qemu
000112b4         .text		 00000000 loop
00017001 l       .rodata		 0000001b name
00010010         .text		 00000000 not_core_0
00011244 l     F .text		 00000014 panic
0001701c l       .rodata		 00000003 release_tag
0005404c l       .bss		 00000024 screen_activity
00012e94 l     F .text		 000002dc serial.decimal
00011020 l     F .text		 000001e0 serial.hex
00011494 l     F .text		 000000a4 serial.init
00013170 l     F .text		 00000028 serial.isReadByteReady
00011538 l     F .text		 00000040 serial.log
000131f0 l     F .text		 00000048 serial.log.10
00013278 l     F .text		 00000040 serial.log.12
000132b8 l     F .text		 00000040 serial.log.13
0001335c l     F .text		 00000040 serial.log.15
00013434 l     F .text		 00000040 serial.log.17
00011578 l     F .text		 00000058 serial.log.2
00013834 l     F .text		 00000040 serial.log.20
00013a10 l     F .text		 00000040 serial.log.24
00013ac8 l     F .text		 00000058 serial.log.27
00013b20 l     F .text		 00000040 serial.log.28
00011938 l     F .text		 00000040 serial.log.3
00014118 l     F .text		 00000040 serial.log.34
00012368 l     F .text		 0000004c serial.log.4
00014400 l     F .text		 0000006c serial.log.41
000146fc l     F .text		 00000040 serial.log.48
00014778 l     F .text		 00000040 serial.log.50
000147b8 l     F .text		 00000048 serial.log.51
00014800 l     F .text		 00000050 serial.log.52
00014850 l     F .text		 0000007c serial.log.53
00014bd4 l     F .text		 00000040 serial.log.58
00015140 l     F .text		 00000050 serial.log.67
0001551c l     F .text		 00000040 serial.log.77
00015650 l     F .text		 00000040 serial.log.79
00012dbc l     F .text		 00000040 serial.log.9
0001243c l     F .text		 00000018 serial.logBytes
00013198 l     F .text		 00000034 serial.readByteBlocking
000131cc l     F .text		 00000024 serial.writeByte
00012dfc l     F .text		 00000098 serial.writeText
00011200 l     F .text		 00000044 std.debug.assert
00016214 l     F .text		 0000017c std.fmt.digitToChar
00012400 l     F .text		 0000003c std.fmt.format
000133a4 l     F .text		 00000090 std.fmt.format.16
000138e0 l     F .text		 0000003c std.fmt.format.22
00013980 l     F .text		 00000090 std.fmt.format.23
00013a50 l     F .text		 0000003c std.fmt.format.25
00013a8c l     F .text		 0000003c std.fmt.format.26
00013b60 l     F .text		 0000003c std.fmt.format.29
00013bf4 l     F .text		 0000003c std.fmt.format.31
000143c4 l     F .text		 0000003c std.fmt.format.40
000144cc l     F .text		 0000003c std.fmt.format.43
00014508 l     F .text		 000000e8 std.fmt.format.44
000145f0 l     F .text		 0000003c std.fmt.format.45
0001473c l     F .text		 0000003c std.fmt.format.49
000148cc l     F .text		 0000019c std.fmt.format.54
00014c14 l     F .text		 0000003c std.fmt.format.59
00012454 l     F .text		 000000e8 std.fmt.format.6
00014c50 l     F .text		 0000003c std.fmt.format.60
00014c8c l     F .text		 00000090 std.fmt.format.61
00014d1c l     F .text		 000000f4 std.fmt.format.62
00014e10 l     F .text		 000001f0 std.fmt.format.63
000151ac l     F .text		 0000003c std.fmt.format.69
0001555c l     F .text		 000000f4 std.fmt.format.78
00012a78 l     F .text		 0000003c std.fmt.format.8
00015e84 l     F .text		 0000003c std.fmt.format.87
00015f20 l     F .text		 0000003c std.fmt.format.89
00015480 l     F .text		 0000009c std.fmt.formatInt
00015914 l     F .text		 00000570 std.fmt.formatIntUnsigned
00015060 l     F .text		 00000074 std.fmt.formatIntValue
000158a0 l     F .text		 00000074 std.fmt.formatIntValue.86
00015f5c l     F .text		 00000074 std.fmt.formatIntValue.90
00015fd0 l     F .text		 00000074 std.fmt.formatIntValue.91
00016044 l     F .text		 00000074 std.fmt.formatIntValue.92
000160b8 l     F .text		 00000074 std.fmt.formatIntValue.93
0001612c l     F .text		 00000074 std.fmt.formatIntValue.94
000161a0 l     F .text		 00000074 std.fmt.formatIntValue.95
00016458 l     F .text		 00000074 std.fmt.formatIntValue.97
00013fe8 l     F .text		 00000050 std.fmt.formatText
0001462c l     F .text		 00000050 std.fmt.formatText.46
000150d4 l     F .text		 00000050 std.fmt.formatText.65
00013500 l     F .text		 00000068 std.fmt.formatType
00013568 l     F .text		 00000068 std.fmt.formatType.18
00013b9c l     F .text		 00000058 std.fmt.formatType.30
0001446c l     F .text		 00000060 std.fmt.formatType.42
00014ac0 l     F .text		 00000068 std.fmt.formatType.55
00014b28 l     F .text		 00000058 std.fmt.formatType.56
00015000 l     F .text		 00000060 std.fmt.formatType.64
000151e8 l     F .text		 00000060 std.fmt.formatType.70
00015248 l     F .text		 00000060 std.fmt.formatType.71
000152a8 l     F .text		 00000060 std.fmt.formatType.72
00015308 l     F .text		 00000060 std.fmt.formatType.73
00015368 l     F .text		 00000060 std.fmt.formatType.74
000153c8 l     F .text		 00000060 std.fmt.formatType.75
00015ec0 l     F .text		 00000060 std.fmt.formatType.88
00014a68 l     F .text		 00000058 std.fmt.formatValue
00015428 l     F .text		 00000058 std.fmt.formatValue.76
00015690 l     F .text		 00000058 std.fmt.formatValue.80
000156e8 l     F .text		 00000058 std.fmt.formatValue.81
00015740 l     F .text		 00000058 std.fmt.formatValue.82
00015798 l     F .text		 00000058 std.fmt.formatValue.83
000157f0 l     F .text		 00000058 std.fmt.formatValue.84
00015848 l     F .text		 00000058 std.fmt.formatValue.85
00016400 l     F .text		 00000058 std.fmt.formatValue.96
00016390 l     F .text		 00000070 std.mem.set
00011a60 l     F .text		 000002e8 video_core_frame_buffer.Bitmap.drawRect
00012ab4 l     F .text		 00000114 video_core_frame_buffer.Bitmap.getUnalignedU32
00011978 l     F .text		 000000e8 video_core_frame_buffer.Bitmap.init
00012cf8 l     F .text		 0000006c video_core_frame_buffer.FrameBuffer.color32
00012bc8 l     F .text		 00000130 video_core_frame_buffer.FrameBuffer.drawPixel32
000115d0 l     F .text		 00000368 video_core_frame_buffer.FrameBuffer.init
000142c0 l     F .text		 00000034 video_core_mailboxes.MailboxRegisters.blockWhile
00014174 l     F .text		 0000009c video_core_mailboxes.MailboxRegisters.init
000136c8 l     F .text		 00000058 video_core_mailboxes.MailboxRegisters.pullResponseBlocking
00013690 l     F .text		 00000038 video_core_mailboxes.MailboxRegisters.pushRequestBlocking
000135d0 l     F .text		 00000080 video_core_properties.add
00014088 l     F .text		 00000074 video_core_properties.advance
000125c8 l     F .text		 00000470 video_core_properties.callVideoCoreProperties
00013720 l     F .text		 0000009c video_core_properties.check
00012568 l     F .text		 00000020 video_core_properties.in
000137bc l     F .text		 00000078 video_core_properties.next
00012588 l     F .text		 00000020 video_core_properties.out
000125a8 l     F .text		 00000020 video_core_properties.set
0001253c l     F .text		 0000002c video_core_properties.tag
00054080 l       .bss		 00001000 words
00000000 l    df *ABS*		 00000000 compiler_rt
000164cc         .text		 00000000 $a.131
00016650         .text		 00000000 $a.138
0001669c         .text		 00000000 $a.149
000166e0         .text		 00000000 $a.150
000166e4         .text		 00000000 $a.152
000166f4         .text		 00000000 $a.153
00000000 l    df *ABS*		 00000000 c
00016700         .text		 00000000 $a.1
00016760         .text		 00000000 $a.2
000166f4 gw    F .text		 0000000c __aeabi_memclr
000166e0 g     F .text		 00000004 __aeabi_memcpy4
000166e4 gw    F .text		 00000010 __aeabi_memset
000164cc g     F .text		 00000184 __aeabi_uidiv
0001669c gw    F .text		 00000044 __aeabi_uidivmod
00055080         .bss		 00000000 __bss_end
00054000         .bss		 00000000 __bss_start
00010000         .text		 00000000 _start
00012174 g     F .text		 00000020 exceptionEntry0x00
0001226c g     F .text		 00000020 exceptionEntry0x04
0001228c g     F .text		 00000020 exceptionEntry0x08
000122ac g     F .text		 00000020 exceptionEntry0x0c
000122cc g     F .text		 00000020 exceptionEntry0x10
000122ec g     F .text		 00000020 exceptionEntry0x14
0001230c g     F .text		 00000020 exceptionEntry0x18
0001232c g     F .text		 00000020 exceptionEntry0x1c
000112fc g     F .text		 00000128 kernelMain
000112a4 g     F .text		 00000058 kernelMain2
00016760 g     F .text		 00000060 memcpy
00016700 g     F .text		 00000060 memset
000166f4 g     F .text		 0000000c __aeabi_memclr4
000166f4 g     F .text		 0000000c __aeabi_memclr8
000166e0 gw    F .text		 00000004 __aeabi_memcpy
000166e0 g     F .text		 00000004 __aeabi_memcpy8
000166e4 g     F .text		 00000010 __aeabi_memset4
000166e4 g     F .text		 00000010 __aeabi_memset8
00016650 gw    F .text		 0000004c __udivmodsi4
000164cc gw    F .text		 00000184 __udivsi3
00011020         .text		 00000000 __end_init
00035780         .rodata		 00000000 __debug_info_start
00041935         .rodata		 00000000 __debug_info_end
00041935         .rodata		 00000000 __debug_abbrev_start
00041fc1         .rodata		 00000000 __debug_abbrev_end
00041fc1         .rodata		 00000000 __debug_str_start
00045635         .rodata		 00000000 __debug_str_end
00045635         .rodata		 00000000 __debug_line_start
000527a6         .rodata		 00000000 __debug_line_end
000527a6         .rodata		 00000000 __debug_ranges_start
000535c6         .rodata		 00000000 __debug_ranges_end
Program Header:
    LOAD off    0x00001000 vaddr 0x00010000 paddr 0x00010000 align 2**12
         filesz 0x000435c6 memsz 0x000435c6 flags r-x
    LOAD off    0x00045000 vaddr 0x00054000 paddr 0x00054000 align 2**12
         filesz 0x00000000 memsz 0x00001080 flags rw-
   STACK off    0x00000000 vaddr 0x00000000 paddr 0x00000000 align 2**64
         filesz 0x00000000 memsz 0x01000000 flags rw-
 UNKNOWN off    0x000077c0 vaddr 0x000167c0 paddr 0x000167c0 align 2**2
         filesz 0x00000010 memsz 0x00000010 flags r--

Dynamic Section:
